./lib/librcssclangparser.a[arithop.cpp.o]:
./lib/librcssclangparser.a[clangaction.cpp.o]:
./lib/librcssclangparser.a[clangadvicemsg.cpp.o]:
./lib/librcssclangparser.a[clangbuilder.cpp.o]:
./lib/librcssclangparser.a[clangdefmsg.cpp.o]:
./lib/librcssclangparser.a[clangdelmsg.cpp.o]:
./lib/librcssclangparser.a[clangfreeformmsg.cpp.o]:
./lib/librcssclangparser.a[clanginfomsg.cpp.o]:
./lib/librcssclangparser.a[clangmetamsg.cpp.o]:
./lib/librcssclangparser.a[clangmsg.cpp.o]:
./lib/librcssclangparser.a[clangmsgbuilder.cpp.o]:
./lib/librcssclangparser.a[clangparser.cpp.o]:
./lib/librcssclangparser.a[clangrulemsg.cpp.o]:
./lib/librcssclangparser.a[clangunsuppmsg.cpp.o]:
./lib/librcssclangparser.a[clangutil.cpp.o]:
./lib/librcssclangparser.a[coach_lang_comp.cpp.o]:
./lib/librcssclangparser.a[coach_lang_parser.cpp.o]:
./lib/librcssclangparser.a[coach_lang_tok.cpp.o]:
./lib/librcssclangparser.a[compop.cpp.o]:
./lib/librcssclangparser.a[cond.cpp.o]:
./lib/librcssclangparser.a[rcssexceptions.cpp.o]:
./lib/librcssclangparser.a[region.cpp.o]:
./lib/librcssclangparser.a[rule.cpp.o]:
./lib/librcssconfparser.a[builder.cpp.o]:
./lib/librcssconfparser.a[parser.cpp.o]:
./lib/librcssconfparser.a[statushandler.cpp.o]:
./lib/librcssconfparser.a[streamstatushandler.cpp.o]:
./lib/librcssgz.a[gzfstream.cpp.o]:
./lib/librcssgz.a[gzstream.cpp.o]:
./lib/librcssnet.a[addr.cpp.o]:
./lib/librcssnet.a[socket.cpp.o]:
./lib/librcssnet.a[socketstreambuf.cpp.o]:
./lib/librcssnet.a[tcpsocket.cpp.o]:
./lib/librcssnet.a[udpsocket.cpp.o]:
.LC131
.LC255
.LC256
.LC260
.LC262
CSWTCH.106
_GLOBAL__sub_I__Z16RCSS_CLANG_parsePv
_GLOBAL__sub_I__ZN18RCSSCLangFLexLexer6yywrapEv
_GLOBAL__sub_I__ZN4rcss2gz11gzstreambufC2ERSt15basic_streambufIcSt11char_traitsIcEEj
_GLOBAL__sub_I__ZN4rcss2gz9gzfilebufC2Ev
_GLOBAL__sub_I__ZN4rcss3net15SocketStreamBufC2ERNS0_6SocketERKNS0_4AddrENS1_8ConnTypeEl
_GLOBAL__sub_I__ZN4rcss3net4Addr9BROADCASTE
_GLOBAL__sub_I__ZN4rcss3net6Socket13INVALIDSOCKETE
_GLOBAL__sub_I__ZN4rcss3net9TCPSocketC2Ev
_GLOBAL__sub_I__ZN4rcss3net9UDPSocketC2Ev
_GLOBAL__sub_I__ZN4rcss4conf13StatusHandlerC2Ev
_GLOBAL__sub_I__ZN4rcss4conf19StreamStatusHandlerC2Ev
_GLOBAL__sub_I__ZN4rcss4conf6Parser9ErrorStrsE
_GLOBAL__sub_I__ZN4rcss4conf7BuilderC2ERKNSt7__cxx1112basic_stringIcSt11char_traitsIcESaIcEEES9_S9_
_GLOBAL__sub_I__ZN4rcss4util6CompOp7STRINGSE
_GLOBAL__sub_I__ZN4rcss4util7ArithOp7STRINGSE
_GLOBAL__sub_I__ZN4rcss5clang10BuilderErrC2EPKcRKiS3_
_GLOBAL__sub_I__ZN4rcss5clang10MsgBuilder8ItemType5clearEv
_GLOBAL__sub_I__ZN4rcss5clang11FreeformMsgC2Ev
_GLOBAL__sub_I__ZN4rcss5clang12CondPlayMode12MODE_STRINGSE
_GLOBAL__sub_I__ZN4rcss5clang3MsgC2Ev
_GLOBAL__sub_I__ZN4rcss5clang6ActionD2Ev
_GLOBAL__sub_I__ZN4rcss5clang6DelMsgC2Ev
_GLOBAL__sub_I__ZN4rcss5clang6ParserC2ERNS0_7BuilderE
_GLOBAL__sub_I__ZN4rcss5clang7InfoMsgC2Ev
_GLOBAL__sub_I__ZN4rcss5clang7RuleMsgC2Ev
_GLOBAL__sub_I__ZN4rcss5clang8BallMove13TOKEN_STRINGSE
_GLOBAL__sub_I__ZN4rcss5clang9AdviceMsgC2Ev
_GLOBAL__sub_I__ZN4rcss5clang9DefineMsgC2Ev
_GLOBAL__sub_I__ZN4rcss5clang9MetaTokenC2Ev
_GLOBAL__sub_I__ZN4rcss5clang9UnsuppMsgC2Ev
_GLOBAL__sub_I__ZNK4rcss5clang10RuleIDList3allEv
_GLOBAL__sub_I__ZNK4rcss5clang11PointSimple5printERSo
_GLOBAL__sub_I__ZNK4rcss5clang7DirComm5printERSo
_Unwind_Resume
_Z16RCSS_CLANG_errorPKc
_Z16RCSS_CLANG_errorPc
_Z16RCSS_CLANG_parsePv
_Z22RCSSCLangFlexLexerfreePv
_Z23RCSSCLangFlexLexerallocm
_Z25RCSSCLangFlexLexerreallocPvm
_ZGVZN12_GLOBAL__N_18getParamEPvE12cached_param
_ZGVZN4rcss4util6CompOp8instanceERKNS1_6comp_tEE9instances
_ZGVZN4rcss4util7ArithOp8instanceERKNS1_7arith_tEE9instances
_ZGVZN5boost6spirit7classic4impl19negative_accumulateIdLi10EE3addERddE13min_div_radix
_ZGVZN5boost6spirit7classic4impl19negative_accumulateIdLi10EE3addERddE3min
_ZGVZN5boost6spirit7classic4impl19negative_accumulateIiLi10EE3addERiiE13min_div_radix
_ZGVZN5boost6spirit7classic4impl19negative_accumulateIiLi10EE3addERiiE3min
_ZGVZN5boost6spirit7classic4impl19positive_accumulateIdLi10EE3addERddE13max_div_radix
_ZGVZN5boost6spirit7classic4impl19positive_accumulateIdLi10EE3addERddE3max
_ZGVZN5boost6spirit7classic4impl19positive_accumulateIiLi10EE3addERiiE13max_div_radix
_ZGVZN5boost6spirit7classic4impl19positive_accumulateIiLi10EE3addERiiE3max
_ZL11yytranslate
_ZL12yy_NUL_trans
_ZL13RCSS_CLANG_r1
_ZL13RCSS_CLANG_r2
_ZL14yysyntax_errorPmPPcPsi
_ZL15RCSS_CLANG_pact
_ZL18RCSS_CLANG_yycheck
_ZL18RCSS_CLANG_yytable
_ZL6yy_nxt
_ZL7yypgoto
_ZL7yytname
_ZL8yydefact
_ZL9yy_accept
_ZL9yydefgoto
_ZL9yytnamerrPcPKc
_ZN12_GLOBAL__N_110getBuilderEPv
_ZN12_GLOBAL__N_111cleanStringEPKcS1_
_ZN12_GLOBAL__N_18getParamEPv
_ZN12_GLOBAL__N_18isQuatedERKNSt7__cxx1112basic_stringIcSt11char_traitsIcESaIcEEE.constprop.328
_ZN14RCSSCLangLexer5yylexEv
_ZN14RCSSCLangLexerD0Ev
_ZN14RCSSCLangLexerD1Ev
_ZN14RCSSCLangLexerD2Ev
_ZN14RCSSCLangLexerD5Ev
_ZN18RCSSCLangFLexLexer10LexerErrorEPKc
_ZN18RCSSCLangFLexLexer10LexerInputEPci
_ZN18RCSSCLangFLexLexer11LexerOutputEPKci
_ZN18RCSSCLangFLexLexer11ctor_commonEv
_ZN18RCSSCLangFLexLexer12yy_pop_stateEv
_ZN18RCSSCLangFLexLexer12yy_top_stateEv
_ZN18RCSSCLangFLexLexer13yy_push_stateEi
_ZN18RCSSCLangFLexLexer14switch_streamsEPSiPSo
_ZN18RCSSCLangFLexLexer14switch_streamsERSiRSo
_ZN18RCSSCLangFLexLexer14yy_init_bufferEP15yy_buffer_stateRSi
_ZN18RCSSCLangFLexLexer15yy_flush_bufferEP15yy_buffer_state
_ZN18RCSSCLangFLexLexer16yy_create_bufferEPSii
_ZN18RCSSCLangFLexLexer16yy_create_bufferERSii
_ZN18RCSSCLangFLexLexer16yy_delete_bufferEP15yy_buffer_state
_ZN18RCSSCLangFLexLexer16yy_try_NUL_transEi
_ZN18RCSSCLangFLexLexer18yy_get_next_bufferEv
_ZN18RCSSCLangFLexLexer18yypop_buffer_stateEv
_ZN18RCSSCLangFLexLexer19yy_switch_to_bufferEP15yy_buffer_state
_ZN18RCSSCLangFLexLexer19yypush_buffer_stateEP15yy_buffer_state
_ZN18RCSSCLangFLexLexer20yy_load_buffer_stateEv
_ZN18RCSSCLangFLexLexer21yy_get_previous_stateEv
_ZN18RCSSCLangFLexLexer21yyensure_buffer_stackEv
_ZN18RCSSCLangFLexLexer5yylexEv
_ZN18RCSSCLangFLexLexer6yywrapEv
_ZN18RCSSCLangFLexLexer7yyinputEv
_ZN18RCSSCLangFLexLexer7yyunputEiPc
_ZN18RCSSCLangFLexLexer9yyrestartEPSi
_ZN18RCSSCLangFLexLexer9yyrestartERSi
_ZN18RCSSCLangFLexLexerC1EPSiPSo
_ZN18RCSSCLangFLexLexerC1ERSiRSo
_ZN18RCSSCLangFLexLexerC2EPSiPSo
_ZN18RCSSCLangFLexLexerC2ERSiRSo
_ZN18RCSSCLangFLexLexerD0Ev
_ZN18RCSSCLangFLexLexerD1Ev
_ZN18RCSSCLangFLexLexerD2Ev
_ZN4rcss11stripQuotesENSt7__cxx1112basic_stringIcSt11char_traitsIcESaIcEEEc
_ZN4rcss2gz10gzifstream4openEPKc
_ZN4rcss2gz10gzifstream5closeEv
_ZN4rcss2gz10gzifstreamC1EPKc
_ZN4rcss2gz10gzifstreamC1Ev
_ZN4rcss2gz10gzifstreamC2EPKc
_ZN4rcss2gz10gzifstreamC2Ev
_ZN4rcss2gz10gzifstreamD0Ev
_ZN4rcss2gz10gzifstreamD1Ev
_ZN4rcss2gz10gzifstreamD2Ev
_ZN4rcss2gz10gzifstreamD4Ev
_ZN4rcss2gz10gzifstreamD5Ev
_ZN4rcss2gz10gzofstream4openEPKcii
_ZN4rcss2gz10gzofstream5closeEv
_ZN4rcss2gz10gzofstreamC1EPKcii
_ZN4rcss2gz10gzofstreamC1Ev
_ZN4rcss2gz10gzofstreamC2EPKcii
_ZN4rcss2gz10gzofstreamC2Ev
_ZN4rcss2gz10gzofstreamD0Ev
_ZN4rcss2gz10gzofstreamD1Ev
_ZN4rcss2gz10gzofstreamD2Ev
_ZN4rcss2gz10gzofstreamD4Ev
_ZN4rcss2gz10gzofstreamD5Ev
_ZN4rcss2gz11gzstreambuf4syncEv
_ZN4rcss2gz11gzstreambuf8overflowEi
_ZN4rcss2gz11gzstreambuf8readDataEPcRi
_ZN4rcss2gz11gzstreambuf8setLevelEi
_ZN4rcss2gz11gzstreambuf9underflowEv
_ZN4rcss2gz11gzstreambuf9writeDataEi
_ZN4rcss2gz11gzstreambufC1ERSt15basic_streambufIcSt11char_traitsIcEEj
_ZN4rcss2gz11gzstreambufC2ERSt15basic_streambufIcSt11char_traitsIcEEj
_ZN4rcss2gz11gzstreambufD0Ev
_ZN4rcss2gz11gzstreambufD1Ev
_ZN4rcss2gz11gzstreambufD2Ev
_ZN4rcss2gz8gzstreamC1ERSdj
_ZN4rcss2gz8gzstreamC1ERSt15basic_streambufIcSt11char_traitsIcEEj
_ZN4rcss2gz8gzstreamC2ERSdj
_ZN4rcss2gz8gzstreamC2ERSt15basic_streambufIcSt11char_traitsIcEEj
_ZN4rcss2gz8gzstreamD0Ev
_ZN4rcss2gz8gzstreamD1Ev
_ZN4rcss2gz8gzstreamD2Ev
_ZN4rcss2gz8gzstreamD4Ev
_ZN4rcss2gz8gzstreamD5Ev
_ZN4rcss2gz9gzfilebuf14makeModeStringB5cxx11ESt13_Ios_Openmodeii
_ZN4rcss2gz9gzfilebuf21destroyInternalBufferEv
_ZN4rcss2gz9gzfilebuf4openEPKcSt13_Ios_Openmodeii
_ZN4rcss2gz9gzfilebuf4syncEv
_ZN4rcss2gz9gzfilebuf5closeEv
_ZN4rcss2gz9gzfilebuf7is_openEv
_ZN4rcss2gz9gzfilebuf7seekoffElSt12_Ios_SeekdirSt13_Ios_Openmode
_ZN4rcss2gz9gzfilebuf7seekposESt4fposI11__mbstate_tESt13_Ios_Openmode
_ZN4rcss2gz9gzfilebuf8flushBufEv
_ZN4rcss2gz9gzfilebuf8overflowEi
_ZN4rcss2gz9gzfilebuf9showmanycEv
_ZN4rcss2gz9gzfilebuf9underflowEv
_ZN4rcss2gz9gzfilebufC1Ev
_ZN4rcss2gz9gzfilebufC2Ev
_ZN4rcss2gz9gzfilebufD0Ev
_ZN4rcss2gz9gzfilebufD1Ev
_ZN4rcss2gz9gzfilebufD2Ev
_ZN4rcss2gz9gzistreamC1ERSij
_ZN4rcss2gz9gzistreamC1ERSt15basic_streambufIcSt11char_traitsIcEEj
_ZN4rcss2gz9gzistreamC2ERSij
_ZN4rcss2gz9gzistreamC2ERSt15basic_streambufIcSt11char_traitsIcEEj
_ZN4rcss2gz9gzistreamD0Ev
_ZN4rcss2gz9gzistreamD1Ev
_ZN4rcss2gz9gzistreamD2Ev
_ZN4rcss2gz9gzistreamD4Ev
_ZN4rcss2gz9gzistreamD5Ev
_ZN4rcss2gz9gzostreamC1ERSoj
_ZN4rcss2gz9gzostreamC1ERSt15basic_streambufIcSt11char_traitsIcEEj
_ZN4rcss2gz9gzostreamC2ERSoj
_ZN4rcss2gz9gzostreamC2ERSt15basic_streambufIcSt11char_traitsIcEEj
_ZN4rcss2gz9gzostreamD0Ev
_ZN4rcss2gz9gzostreamD1Ev
_ZN4rcss2gz9gzostreamD2Ev
_ZN4rcss2gz9gzostreamD4Ev
_ZN4rcss2gz9gzostreamD5Ev
_ZN4rcss3net15SocketStreamBuf4syncEv
_ZN4rcss3net15SocketStreamBuf8overflowEi
_ZN4rcss3net15SocketStreamBuf9underflowEv
_ZN4rcss3net15SocketStreamBuf9writeDataEv
_ZN4rcss3net15SocketStreamBufC1ERNS0_6SocketENS1_8ConnTypeEl
_ZN4rcss3net15SocketStreamBufC1ERNS0_6SocketERKNS0_4AddrENS1_8ConnTypeEl
_ZN4rcss3net15SocketStreamBufC2ERNS0_6SocketENS1_8ConnTypeEl
_ZN4rcss3net15SocketStreamBufC2ERNS0_6SocketERKNS0_4AddrENS1_8ConnTypeEl
_ZN4rcss3net15SocketStreamBufD0Ev
_ZN4rcss3net15SocketStreamBufD1Ev
_ZN4rcss3net15SocketStreamBufD2Ev
_ZN4rcss3net4Addr3ANYE
_ZN4rcss3net4Addr7setHostERKNSt7__cxx1112basic_stringIcSt11char_traitsIcESaIcEEE
_ZN4rcss3net4Addr7setHostEj
_ZN4rcss3net4Addr7setPortERKNSt7__cxx1112basic_stringIcSt11char_traitsIcESaIcEEES9_
_ZN4rcss3net4Addr7setPortEt
_ZN4rcss3net4Addr9BROADCASTE
_ZN4rcss3net4AddrC1ERK11sockaddr_in
_ZN4rcss3net4AddrC1Etj
_ZN4rcss3net4AddrC2ERK11sockaddr_in
_ZN4rcss3net4AddrC2Etj
_ZN4rcss3net6Socket12setBroadcastEb
_ZN4rcss3net6Socket13INVALIDSOCKETE
_ZN4rcss3net6Socket14setCloseOnExecEb
_ZN4rcss3net6Socket14setNonBlockingEb
_ZN4rcss3net6Socket4bindERKNS0_4AddrE
_ZN4rcss3net6Socket4openEv
_ZN4rcss3net6Socket4recvEPcmRNS0_4AddrEiNS1_12CheckingTypeE
_ZN4rcss3net6Socket4recvEPcmiNS1_12CheckingTypeE
_ZN4rcss3net6Socket4recvEPcmiNS1_12CheckingTypeE.part.4.constprop.7
_ZN4rcss3net6Socket4recvEiPcmRNS0_4AddrEi
_ZN4rcss3net6Socket4recvEiPcmi
_ZN4rcss3net6Socket4sendEPKcmRKNS0_4AddrEiNS1_12CheckingTypeE
_ZN4rcss3net6Socket4sendEPKcmiNS1_12CheckingTypeE
_ZN4rcss3net6Socket5closeEv
_ZN4rcss3net6Socket7closeFDEPi
_ZN4rcss3net6Socket7connectERKNS0_4AddrE
_ZN4rcss3net6Socket8setAsyncEb
_ZN4rcss3net6SocketC1Ei
_ZN4rcss3net6SocketC1Ev
_ZN4rcss3net6SocketC2Ei
_ZN4rcss3net6SocketC2Ev
_ZN4rcss3net6SocketD0Ev
_ZN4rcss3net6SocketD1Ev
_ZN4rcss3net6SocketD2Ev
_ZN4rcss3net9TCPSocket6acceptERS1_
_ZN4rcss3net9TCPSocket6doOpenERi
_ZN4rcss3net9TCPSocket6listenEi
_ZN4rcss3net9TCPSocketC1ERKNS0_4AddrE
_ZN4rcss3net9TCPSocketC1ERKNS0_4AddrES4_
_ZN4rcss3net9TCPSocketC1ERi
_ZN4rcss3net9TCPSocketC1Ev
_ZN4rcss3net9TCPSocketC2ERKNS0_4AddrE
_ZN4rcss3net9TCPSocketC2ERKNS0_4AddrES4_
_ZN4rcss3net9TCPSocketC2ERi
_ZN4rcss3net9TCPSocketC2Ev
_ZN4rcss3net9TCPSocketD0Ev
_ZN4rcss3net9TCPSocketD1Ev
_ZN4rcss3net9TCPSocketD2Ev
_ZN4rcss3net9TCPSocketD5Ev
_ZN4rcss3net9UDPSocket6doOpenERi
_ZN4rcss3net9UDPSocketC1ERKNS0_4AddrE
_ZN4rcss3net9UDPSocketC1ERKNS0_4AddrES4_
_ZN4rcss3net9UDPSocketC1ERi
_ZN4rcss3net9UDPSocketC1Ev
_ZN4rcss3net9UDPSocketC2ERKNS0_4AddrE
_ZN4rcss3net9UDPSocketC2ERKNS0_4AddrES4_
_ZN4rcss3net9UDPSocketC2ERi
_ZN4rcss3net9UDPSocketC2Ev
_ZN4rcss3net9UDPSocketD0Ev
_ZN4rcss3net9UDPSocketD1Ev
_ZN4rcss3net9UDPSocketD2Ev
_ZN4rcss3net9UDPSocketD5Ev
_ZN4rcss3neteqERKNS0_4AddrES3_
_ZN4rcss3netlsERSoRKNS0_4AddrE
_ZN4rcss3netneERKNS0_4AddrES3_
_ZN4rcss4conf13StatusHandler10buildErrorERKNSt7__cxx1112basic_stringIcSt11char_traitsIcESaIcEEES9_S9_S9_i
_ZN4rcss4conf13StatusHandler10loadFailedERKNSt7__cxx1112basic_stringIcSt11char_traitsIcESaIcEEES9_RKSt6vectorIN5boost10filesystem4pathESaISD_EES9_i
_ZN4rcss4conf13StatusHandler10parseErrorERKNSt7__cxx1112basic_stringIcSt11char_traitsIcESaIcEEES9_S9_i
_ZN4rcss4conf13StatusHandler12buildWarningERKNSt7__cxx1112basic_stringIcSt11char_traitsIcESaIcEEES9_S9_S9_i
_ZN4rcss4conf13StatusHandler12handlerAddedERNS0_7BuilderE
_ZN4rcss4conf13StatusHandler13includeFailedERKNSt7__cxx1112basic_stringIcSt11char_traitsIcESaIcEEES9_S9_i
_ZN4rcss4conf13StatusHandler14handlerRemovedERNS0_7BuilderE
_ZN4rcss4conf13StatusHandler15createdConfFileERKNSt7__cxx1112basic_stringIcSt11char_traitsIcESaIcEEE
_ZN4rcss4conf13StatusHandler16creatingConfFileERKNSt7__cxx1112basic_stringIcSt11char_traitsIcESaIcEEE
_ZN4rcss4conf13StatusHandler18confCreationFailedERKNSt7__cxx1112basic_stringIcSt11char_traitsIcESaIcEEEi
_ZN4rcss4conf13StatusHandlerC1Ev
_ZN4rcss4conf13StatusHandlerC2Ev
_ZN4rcss4conf13StatusHandlerD0Ev
_ZN4rcss4conf13StatusHandlerD1Ev
_ZN4rcss4conf13StatusHandlerD2Ev
_ZN4rcss4conf17ParseErrorHandler10parseErrorEPKNS0_6ParserERKN5boost6spirit7classic7scannerIPKcNS7_16scanner_policiesINS7_16iteration_policyENS7_12match_policyENS7_13action_policyEEEEERKNS7_12parser_errorINS2_6ErrorsESA_EE
_ZN4rcss4conf19StreamStatusHandler10buildErrorERKNSt7__cxx1112basic_stringIcSt11char_traitsIcESaIcEEES9_S9_S9_i
_ZN4rcss4conf19StreamStatusHandler10loadFailedERKNSt7__cxx1112basic_stringIcSt11char_traitsIcESaIcEEES9_RKSt6vectorIN5boost10filesystem4pathESaISD_EES9_i
_ZN4rcss4conf19StreamStatusHandler10parseErrorERKNSt7__cxx1112basic_stringIcSt11char_traitsIcESaIcEEES9_S9_i
_ZN4rcss4conf19StreamStatusHandler12buildWarningERKNSt7__cxx1112basic_stringIcSt11char_traitsIcESaIcEEES9_S9_S9_i
_ZN4rcss4conf19StreamStatusHandler13includeFailedERKNSt7__cxx1112basic_stringIcSt11char_traitsIcESaIcEEES9_S9_i
_ZN4rcss4conf19StreamStatusHandler15createdConfFileERKNSt7__cxx1112basic_stringIcSt11char_traitsIcESaIcEEE
_ZN4rcss4conf19StreamStatusHandler16creatingConfFileERKNSt7__cxx1112basic_stringIcSt11char_traitsIcESaIcEEE
_ZN4rcss4conf19StreamStatusHandler18confCreationFailedERKNSt7__cxx1112basic_stringIcSt11char_traitsIcESaIcEEEi
_ZN4rcss4conf19StreamStatusHandlerC1ERSo
_ZN4rcss4conf19StreamStatusHandlerC1Ev
_ZN4rcss4conf19StreamStatusHandlerC2ERSo
_ZN4rcss4conf19StreamStatusHandlerC2Ev
_ZN4rcss4conf19StreamStatusHandlerD0Ev
_ZN4rcss4conf19StreamStatusHandlerD1Ev
_ZN4rcss4conf19StreamStatusHandlerD2Ev
_ZN4rcss4conf6Parser10boostParseEv
_ZN4rcss4conf6Parser10parseErrorEmRKNSt7__cxx1112basic_stringIcSt11char_traitsIcESaIcEEE
_ZN4rcss4conf6Parser11buildStringEPKcS3_
_ZN4rcss4conf6Parser12setParamNameEPKcS3_
_ZN4rcss4conf6Parser13countNewLinesEPKcS3_
_ZN4rcss4conf6Parser15appendParamNameEPKcS3_
_ZN4rcss4conf6Parser15parseCreateConfERKN5boost10filesystem4pathERKNSt7__cxx1112basic_stringIcSt11char_traitsIcESaIcEEE
_ZN4rcss4conf6Parser18requestGenericHelpEv
_ZN4rcss4conf6Parser19requestDetailedHelpEv
_ZN4rcss4conf6Parser5parseERKN5boost10filesystem4pathE
_ZN4rcss4conf6Parser5parseERSi
_ZN4rcss4conf6Parser5parseERSiRKNSt7__cxx1112basic_stringIcSt11char_traitsIcESaIcEEE
_ZN4rcss4conf6Parser5parseEiPKPKc
_ZN4rcss4conf6Parser7doParseERSi
_ZN4rcss4conf6Parser7includeEPKcS3_
_ZN4rcss4conf6Parser8buildIntEi
_ZN4rcss4conf6Parser9ErrorStrsE
_ZN4rcss4conf6Parser9buildBoolEb
_ZN4rcss4conf6Parser9buildRealEd
_ZN4rcss4conf6ParserC1ERNS0_7BuilderE
_ZN4rcss4conf6ParserC2ERNS0_7BuilderE
_ZN4rcss4conf6ParserD0Ev
_ZN4rcss4conf6ParserD1Ev
_ZN4rcss4conf6ParserD2Ev
_ZN4rcss4conf6SetterIbEclEb
_ZN4rcss4conf6SetterIdEclEd
_ZN4rcss4conf6SetterIiEclEi
_ZN4rcss4conf7Builder10addHandlerERNS0_13StatusHandlerE
_ZN4rcss4conf7Builder10buildErrorERKNSt7__cxx1112basic_stringIcSt11char_traitsIcESaIcEEES9_S9_S9_i
_ZN4rcss4conf7Builder10buildParamINSt7__cxx1112basic_stringIcSt11char_traitsIcESaIcEEEEEbRKS8_SA_T_SA_i
_ZN4rcss4conf7Builder10buildParamIbEEbRKNSt7__cxx1112basic_stringIcSt11char_traitsIcESaIcEEESA_T_SA_i
_ZN4rcss4conf7Builder10buildParamIdEEbRKNSt7__cxx1112basic_stringIcSt11char_traitsIcESaIcEEESA_T_SA_i
_ZN4rcss4conf7Builder10buildParamIiEEbRKNSt7__cxx1112basic_stringIcSt11char_traitsIcESaIcEEESA_T_SA_i
_ZN4rcss4conf7Builder10parseErrorERKNSt7__cxx1112basic_stringIcSt11char_traitsIcESaIcEEES9_S9_i
_ZN4rcss4conf7Builder11displayHelpEv
_ZN4rcss4conf7Builder11removeChildERS1_
_ZN4rcss4conf7Builder12buildWarningERKNSt7__cxx1112basic_stringIcSt11char_traitsIcESaIcEEES9_S9_S9_i
_ZN4rcss4conf7Builder12displayUsageERKNSt7__cxx1112basic_stringIcSt11char_traitsIcESaIcEEE
_ZN4rcss4conf7Builder12doBuildParamERKNSt7__cxx1112basic_stringIcSt11char_traitsIcESaIcEEES9_S9_S9_i
_ZN4rcss4conf7Builder12doBuildParamERKNSt7__cxx1112basic_stringIcSt11char_traitsIcESaIcEEES9_S9_i
_ZN4rcss4conf7Builder12doBuildParamERKNSt7__cxx1112basic_stringIcSt11char_traitsIcESaIcEEES9_bS9_i
_ZN4rcss4conf7Builder12doBuildParamERKNSt7__cxx1112basic_stringIcSt11char_traitsIcESaIcEEES9_dS9_i
_ZN4rcss4conf7Builder12doBuildParamERKNSt7__cxx1112basic_stringIcSt11char_traitsIcESaIcEEES9_iS9_i
_ZN4rcss4conf7Builder12doBuildParamERKNSt7__cxx1112basic_stringIcSt11char_traitsIcESaIcEEEbS9_i
_ZN4rcss4conf7Builder12doBuildParamERKNSt7__cxx1112basic_stringIcSt11char_traitsIcESaIcEEEdS9_i
_ZN4rcss4conf7Builder12doBuildParamERKNSt7__cxx1112basic_stringIcSt11char_traitsIcESaIcEEEiS9_i
_ZN4rcss4conf7Builder13addedToParserERNS0_6ParserE
_ZN4rcss4conf7Builder13includeFailedERKNSt7__cxx1112basic_stringIcSt11char_traitsIcESaIcEEES9_S9_i
_ZN4rcss4conf7Builder13removeHandlerERNS0_13StatusHandlerE
_ZN4rcss4conf7Builder14createConfFileERSoRKNSt7__cxx1112basic_stringIcSt11char_traitsIcESaIcEEE
_ZN4rcss4conf7Builder14writeConfValueINSt7__cxx1112basic_stringIcSt11char_traitsIcESaIcEEEEEvRSoT_.isra.13.constprop.134
_ZN4rcss4conf7Builder15createdConfFileERKNSt7__cxx1112basic_stringIcSt11char_traitsIcESaIcEEE
_ZN4rcss4conf7Builder16creatingConfFileERKNSt7__cxx1112basic_stringIcSt11char_traitsIcESaIcEEE
_ZN4rcss4conf7Builder16displayHelpEntryERSoRKNSt7__cxx1112basic_stringIcSt11char_traitsIcESaIcEEESA_
_ZN4rcss4conf7Builder16displayHelpEntryERSoRKNSt7__cxx1112basic_stringIcSt11char_traitsIcESaIcEEESA_SA_
_ZN4rcss4conf7Builder16displayHelpEntryINSt7__cxx1112basic_stringIcSt11char_traitsIcESaIcEEEEEvRSoRKS8_SB_T_SB_
_ZN4rcss4conf7Builder16displayHelpEntryIbEEvRSoRKNSt7__cxx1112basic_stringIcSt11char_traitsIcESaIcEEESB_T_SB_
_ZN4rcss4conf7Builder16displayHelpEntryIdEEvRSoRKNSt7__cxx1112basic_stringIcSt11char_traitsIcESaIcEEESB_T_SB_
_ZN4rcss4conf7Builder16displayHelpEntryIiEEvRSoRKNSt7__cxx1112basic_stringIcSt11char_traitsIcESaIcEEESB_T_SB_
_ZN4rcss4conf7Builder16doCreateConfFileERSo
_ZN4rcss4conf7Builder17removedFromParserEv
_ZN4rcss4conf7Builder18confCreationFailedERKNSt7__cxx1112basic_stringIcSt11char_traitsIcESaIcEEEi
_ZN4rcss4conf7Builder18displayGenericHelpEv
_ZN4rcss4conf7Builder18requestGenericHelpEv
_ZN4rcss4conf7Builder19createConfFileEntryINSt7__cxx1112basic_stringIcSt11char_traitsIcESaIcEEEEEvRSoRKS8_SB_T_SB_
_ZN4rcss4conf7Builder19createConfFileEntryIbEEvRSoRKNSt7__cxx1112basic_stringIcSt11char_traitsIcESaIcEEESB_T_SB_
_ZN4rcss4conf7Builder19createConfFileEntryIdEEvRSoRKNSt7__cxx1112basic_stringIcSt11char_traitsIcESaIcEEESB_T_SB_
_ZN4rcss4conf7Builder19createConfFileEntryIiEEvRSoRKNSt7__cxx1112basic_stringIcSt11char_traitsIcESaIcEEESB_T_SB_
_ZN4rcss4conf7Builder19displayDetailedHelpEv
_ZN4rcss4conf7Builder19requestDetailedHelpERKNSt7__cxx1112basic_stringIcSt11char_traitsIcESaIcEEE
_ZN4rcss4conf7Builder19requestDetailedHelpEv
_ZN4rcss4conf7Builder21doRequestDetailedHelpERKNSt7__cxx1112basic_stringIcSt11char_traitsIcESaIcEEE
_ZN4rcss4conf7Builder5resetEv
_ZN4rcss4conf7Builder6parserEv
_ZN4rcss4conf7Builder8addChildERS1_
_ZN4rcss4conf7Builder8setParamERKNSt7__cxx1112basic_stringIcSt11char_traitsIcESaIcEEENS1_9ParamInfoIS7_EES9_S9_i
_ZN4rcss4conf7Builder8setParamERKNSt7__cxx1112basic_stringIcSt11char_traitsIcESaIcEEENS1_9ParamInfoIS7_EEbS9_i
_ZN4rcss4conf7Builder8setParamERKNSt7__cxx1112basic_stringIcSt11char_traitsIcESaIcEEENS1_9ParamInfoIS7_EEdS9_i
_ZN4rcss4conf7Builder8setParamERKNSt7__cxx1112basic_stringIcSt11char_traitsIcESaIcEEENS1_9ParamInfoIS7_EEiS9_i
_ZN4rcss4conf7Builder8setParamERKNSt7__cxx1112basic_stringIcSt11char_traitsIcESaIcEEENS1_9ParamInfoIbEES9_S9_i
_ZN4rcss4conf7Builder8setParamERKNSt7__cxx1112basic_stringIcSt11char_traitsIcESaIcEEENS1_9ParamInfoIbEEbS9_i
_ZN4rcss4conf7Builder8setParamERKNSt7__cxx1112basic_stringIcSt11char_traitsIcESaIcEEENS1_9ParamInfoIbEEdS9_i
_ZN4rcss4conf7Builder8setParamERKNSt7__cxx1112basic_stringIcSt11char_traitsIcESaIcEEENS1_9ParamInfoIbEEiS9_i
_ZN4rcss4conf7Builder8setParamERKNSt7__cxx1112basic_stringIcSt11char_traitsIcESaIcEEENS1_9ParamInfoIdEES9_S9_i
_ZN4rcss4conf7Builder8setParamERKNSt7__cxx1112basic_stringIcSt11char_traitsIcESaIcEEENS1_9ParamInfoIdEEbS9_i
_ZN4rcss4conf7Builder8setParamERKNSt7__cxx1112basic_stringIcSt11char_traitsIcESaIcEEENS1_9ParamInfoIdEEdS9_i
_ZN4rcss4conf7Builder8setParamERKNSt7__cxx1112basic_stringIcSt11char_traitsIcESaIcEEENS1_9ParamInfoIdEEiS9_i
_ZN4rcss4conf7Builder8setParamERKNSt7__cxx1112basic_stringIcSt11char_traitsIcESaIcEEENS1_9ParamInfoIiEES9_S9_i
_ZN4rcss4conf7Builder8setParamERKNSt7__cxx1112basic_stringIcSt11char_traitsIcESaIcEEENS1_9ParamInfoIiEEbS9_i
_ZN4rcss4conf7Builder8setParamERKNSt7__cxx1112basic_stringIcSt11char_traitsIcESaIcEEENS1_9ParamInfoIiEEdS9_i
_ZN4rcss4conf7Builder8setParamERKNSt7__cxx1112basic_stringIcSt11char_traitsIcESaIcEEENS1_9ParamInfoIiEEiS9_i
_ZN4rcss4conf7Builder9ParamInfoINSt7__cxx1112basic_stringIcSt11char_traitsIcESaIcEEEEC1ERKS9_
_ZN4rcss4conf7Builder9ParamInfoINSt7__cxx1112basic_stringIcSt11char_traitsIcESaIcEEEEC2ERKS9_
_ZN4rcss4conf7Builder9ParamInfoINSt7__cxx1112basic_stringIcSt11char_traitsIcESaIcEEEEC5ERKS9_
_ZN4rcss4conf7Builder9ParamInfoINSt7__cxx1112basic_stringIcSt11char_traitsIcESaIcEEEED1Ev
_ZN4rcss4conf7Builder9ParamInfoINSt7__cxx1112basic_stringIcSt11char_traitsIcESaIcEEEED2Ev
_ZN4rcss4conf7Builder9ParamInfoINSt7__cxx1112basic_stringIcSt11char_traitsIcESaIcEEEED5Ev
_ZN4rcss4conf7Builder9ParamInfoIbEC1ERKS3_
_ZN4rcss4conf7Builder9ParamInfoIbEC2ERKS3_
_ZN4rcss4conf7Builder9ParamInfoIbEC5ERKS3_
_ZN4rcss4conf7Builder9ParamInfoIbED1Ev
_ZN4rcss4conf7Builder9ParamInfoIbED2Ev
_ZN4rcss4conf7Builder9ParamInfoIbED5Ev
_ZN4rcss4conf7Builder9ParamInfoIdEC1ERKS3_
_ZN4rcss4conf7Builder9ParamInfoIdEC2ERKS3_
_ZN4rcss4conf7Builder9ParamInfoIdEC5ERKS3_
_ZN4rcss4conf7Builder9ParamInfoIdED1Ev
_ZN4rcss4conf7Builder9ParamInfoIdED2Ev
_ZN4rcss4conf7Builder9ParamInfoIdED5Ev
_ZN4rcss4conf7Builder9ParamInfoIiEC1ERKS3_
_ZN4rcss4conf7Builder9ParamInfoIiEC2ERKS3_
_ZN4rcss4conf7Builder9ParamInfoIiEC5ERKS3_
_ZN4rcss4conf7Builder9ParamInfoIiED1Ev
_ZN4rcss4conf7Builder9ParamInfoIiED2Ev
_ZN4rcss4conf7Builder9ParamInfoIiED5Ev
_ZN4rcss4conf7BuilderC1EPS1_RKNSt7__cxx1112basic_stringIcSt11char_traitsIcESaIcEEESA_
_ZN4rcss4conf7BuilderC1ERKNSt7__cxx1112basic_stringIcSt11char_traitsIcESaIcEEES9_S9_
_ZN4rcss4conf7BuilderC2EPS1_RKNSt7__cxx1112basic_stringIcSt11char_traitsIcESaIcEEESA_
_ZN4rcss4conf7BuilderC2ERKNSt7__cxx1112basic_stringIcSt11char_traitsIcESaIcEEES9_S9_
_ZN4rcss4conf7BuilderD0Ev
_ZN4rcss4conf7BuilderD1Ev
_ZN4rcss4conf7BuilderD2Ev
_ZN4rcss4util6CompOp12greaterEqualEv
_ZN4rcss4util6CompOp4lessEv
_ZN4rcss4util6CompOp5equalEv
_ZN4rcss4util6CompOp7STRINGSE
_ZN4rcss4util6CompOp7greaterEv
_ZN4rcss4util6CompOp8instanceERKNS1_6comp_tE
_ZN4rcss4util6CompOp8notEqualEv
_ZN4rcss4util6CompOp9lessEqualEv
_ZN4rcss4util6CompOpC1ERKNS1_6comp_tE
_ZN4rcss4util6CompOpC2ERKNS1_6comp_tE
_ZN4rcss4util7ArithOp3divEv
_ZN4rcss4util7ArithOp4multEv
_ZN4rcss4util7ArithOp4plusEv
_ZN4rcss4util7ArithOp5minusEv
_ZN4rcss4util7ArithOp7STRINGSE
_ZN4rcss4util7ArithOp8instanceERKNS1_7arith_tE
_ZN4rcss4util7ArithOpC1ERKNS1_7arith_tE
_ZN4rcss4util7ArithOpC2ERKNS1_7arith_tE
_ZN4rcss4util7NullErrC1EPKcRKiS3_
_ZN4rcss4util7NullErrC2EPKcRKiS3_
_ZN4rcss4util7NullErrD0Ev
_ZN4rcss4util7NullErrD1Ev
_ZN4rcss4util7NullErrD2Ev
_ZN4rcss4util7NullErrD5Ev
_ZN4rcss4utillsERSoRKNS0_6CompOpE
_ZN4rcss5clang10ActDribble12detachRegionEv
_ZN4rcss5clang10ActDribbleC1ESt8auto_ptrINS0_6RegionEE
_ZN4rcss5clang10ActDribbleC1Ev
_ZN4rcss5clang10ActDribbleC2ESt8auto_ptrINS0_6RegionEE
_ZN4rcss5clang10ActDribbleC2Ev
_ZN4rcss5clang10ActDribbleD0Ev
_ZN4rcss5clang10ActDribbleD1Ev
_ZN4rcss5clang10ActDribbleD2Ev
_ZN4rcss5clang10ActHetType13setPlayerTypeEi
_ZN4rcss5clang10ActHetTypeC1ERKi
_ZN4rcss5clang10ActHetTypeC1Ev
_ZN4rcss5clang10ActHetTypeC2ERKi
_ZN4rcss5clang10ActHetTypeC2Ev
_ZN4rcss5clang10ActHetTypeD0Ev
_ZN4rcss5clang10ActHetTypeD1Ev
_ZN4rcss5clang10ActHetTypeD2Ev
_ZN4rcss5clang10ActPassReg12detachRegionEv
_ZN4rcss5clang10ActPassRegC1ESt8auto_ptrINS0_6RegionEE
_ZN4rcss5clang10ActPassRegC1Ev
_ZN4rcss5clang10ActPassRegC2ESt8auto_ptrINS0_6RegionEE
_ZN4rcss5clang10ActPassRegC2Ev
_ZN4rcss5clang10ActPassRegD0Ev
_ZN4rcss5clang10ActPassRegD1Ev
_ZN4rcss5clang10ActPassRegD2Ev
_ZN4rcss5clang10BuilderErrC1EPKcRKiS3_
_ZN4rcss5clang10BuilderErrC2EPKcRKiS3_
_ZN4rcss5clang10BuilderErrD0Ev
_ZN4rcss5clang10BuilderErrD1Ev
_ZN4rcss5clang10BuilderErrD2Ev
_ZN4rcss5clang10BuilderErrD5Ev
_ZN4rcss5clang10IDListRuleC1ERKNS0_10RuleIDListE
_ZN4rcss5clang10IDListRuleC2ERKNS0_10RuleIDListE
_ZN4rcss5clang10IDListRuleD0Ev
_ZN4rcss5clang10IDListRuleD1Ev
_ZN4rcss5clang10IDListRuleD2Ev
_ZN4rcss5clang10MsgBuilder10detatchMsgEv
_ZN4rcss5clang10MsgBuilder10emptyStackEv
_ZN4rcss5clang10MsgBuilder10getRIDListEv
_ZN4rcss5clang10MsgBuilder10getUNumSetEv
_ZN4rcss5clang10MsgBuilder11buildActPosEv
_ZN4rcss5clang10MsgBuilder11buildCondOrEv
_ZN4rcss5clang10MsgBuilder11buildDelMsgEv
_ZN4rcss5clang10MsgBuilder11buildIDRuleEv
_ZN4rcss5clang10MsgBuilder11buildRegArcERKdS3_S3_S3_
_ZN4rcss5clang10MsgBuilder11buildRegRecEv
_ZN4rcss5clang10MsgBuilder11buildRegTriEv
_ZN4rcss5clang10MsgBuilder11buildRuleIDERKNSt7__cxx1112basic_stringIcSt11char_traitsIcESaIcEEE
_ZN4rcss5clang10MsgBuilder11getCondListB5cxx11Ev
_ZN4rcss5clang10MsgBuilder11setTimeRecvERKi
_ZN4rcss5clang10MsgBuilder12buildActHoldEv
_ZN4rcss5clang10MsgBuilder12buildActHomeEv
_ZN4rcss5clang10MsgBuilder12buildActMarkEv
_ZN4rcss5clang10MsgBuilder12buildCondAndEv
_ZN4rcss5clang10MsgBuilder12buildCondNotEv
_ZN4rcss5clang10MsgBuilder12buildDirCommERKbS3_
_ZN4rcss5clang10MsgBuilder12buildInfoMsgEv
_ZN4rcss5clang10MsgBuilder12buildMetaMsgEv
_ZN4rcss5clang10MsgBuilder12buildRegNullEv
_ZN4rcss5clang10MsgBuilder12buildRegQuadEv
_ZN4rcss5clang10MsgBuilder12buildRuleMsgEv
_ZN4rcss5clang10MsgBuilder12buildUNumSetEv
_ZN4rcss5clang10MsgBuilder12getMetaTokenEv
_ZN4rcss5clang10MsgBuilder13buildActClearEv
_ZN4rcss5clang10MsgBuilder13buildActNamedERKNSt7__cxx1112basic_stringIcSt11char_traitsIcESaIcEEE
_ZN4rcss5clang10MsgBuilder13buildActShootEv
_ZN4rcss5clang10MsgBuilder13buildCondTimeERKiRKNS_4util6CompOpE
_ZN4rcss5clang10MsgBuilder13buildCondTrueEv
_ZN4rcss5clang10MsgBuilder13buildCondUNumERKNS0_4UNumE
_ZN4rcss5clang10MsgBuilder13buildDirNamedERKNSt7__cxx1112basic_stringIcSt11char_traitsIcESaIcEEE
_ZN4rcss5clang10MsgBuilder13buildPointRelERKdS3_
_ZN4rcss5clang10MsgBuilder13buildRegNamedERKNSt7__cxx1112basic_stringIcSt11char_traitsIcESaIcEEE
_ZN4rcss5clang10MsgBuilder13buildRegPointEv
_ZN4rcss5clang10MsgBuilder13buildRegUnionEv
_ZN4rcss5clang10MsgBuilder13setStrVarSizeEj
_ZN4rcss5clang10MsgBuilder14buildActTackleEv
_ZN4rcss5clang10MsgBuilder14buildAdviceMsgEv
_ZN4rcss5clang10MsgBuilder14buildCondFalseEv
_ZN4rcss5clang10MsgBuilder14buildCondNamedERKNSt7__cxx1112basic_stringIcSt11char_traitsIcESaIcEEE
_ZN4rcss5clang10MsgBuilder14buildDefineActERKNSt7__cxx1112basic_stringIcSt11char_traitsIcESaIcEEE
_ZN4rcss5clang10MsgBuilder14buildDefineDirERKNSt7__cxx1112basic_stringIcSt11char_traitsIcESaIcEEE
_ZN4rcss5clang10MsgBuilder14buildDefineMsgEv
_ZN4rcss5clang10MsgBuilder14buildDefineRegERKNSt7__cxx1112basic_stringIcSt11char_traitsIcESaIcEEE
_ZN4rcss5clang10MsgBuilder14buildPointBallEv
_ZN4rcss5clang10MsgBuilder14buildTokenRuleERKi
_ZN4rcss5clang10MsgBuilder14buildUnsuppMsgEv
_ZN4rcss5clang10MsgBuilder14checkAndGetBMTEv
_ZN4rcss5clang10MsgBuilder14checkAndGetDefEv
_ZN4rcss5clang10MsgBuilder14checkAndGetDirEv
_ZN4rcss5clang10MsgBuilder14checkAndGetRIDB5cxx11Ev
_ZN4rcss5clang10MsgBuilder14checkAndGetStrB5cxx11Ev
_ZN4rcss5clang10MsgBuilder15buildActDribbleEv
_ZN4rcss5clang10MsgBuilder15buildActHetTypeERKi
_ZN4rcss5clang10MsgBuilder15buildActPassRegEv
_ZN4rcss5clang10MsgBuilder15buildDefineCondERKNSt7__cxx1112basic_stringIcSt11char_traitsIcESaIcEEE
_ZN4rcss5clang10MsgBuilder15buildNestedRuleEv
_ZN4rcss5clang10MsgBuilder15buildPointArithERKNS_4util7ArithOpE
_ZN4rcss5clang10MsgBuilder15buildRuleIDListEv
_ZN4rcss5clang10MsgBuilder15buildSimpleRuleEv
_ZN4rcss5clang10MsgBuilder15buildTokenClearEv
_ZN4rcss5clang10MsgBuilder15checkAndGetCondEv
_ZN4rcss5clang10MsgBuilder15checkAndGetRuleEv
_ZN4rcss5clang10MsgBuilder15checkAndGetUNumEv
_ZN4rcss5clang10MsgBuilder16buildActPassUNumEv
_ZN4rcss5clang10MsgBuilder16buildCondBallPosEv
_ZN4rcss5clang10MsgBuilder16buildCondOppGoalERKiRKNS_4util6CompOpE
_ZN4rcss5clang10MsgBuilder16buildCondOurGoalERKiRKNS_4util6CompOpE
_ZN4rcss5clang10MsgBuilder16buildFreeformMsgERKNSt7__cxx1112basic_stringIcSt11char_traitsIcESaIcEEE
_ZN4rcss5clang10MsgBuilder16buildPointPlayerERKbRKNS0_4UNumE
_ZN4rcss5clang10MsgBuilder16buildPointSimpleERKdS3_
_ZN4rcss5clang10MsgBuilder16checkAndGetPointEv
_ZN4rcss5clang10MsgBuilder16checkAndGetTokenEv
_ZN4rcss5clang10MsgBuilder16getActivateRulesEv
_ZN4rcss5clang10MsgBuilder17buildActBallToRegEv
_ZN4rcss5clang10MsgBuilder17buildActInterceptEv
_ZN4rcss5clang10MsgBuilder17buildCondGoalDiffERKiRKNS_4util6CompOpE
_ZN4rcss5clang10MsgBuilder17buildCondPlayModeERKNS0_8PlayModeE
_ZN4rcss5clang10MsgBuilder17buildMetaTokenVerERKd
_ZN4rcss5clang10MsgBuilder17checkAndGetActionEv
_ZN4rcss5clang10MsgBuilder17checkAndGetRegionEv
_ZN4rcss5clang10MsgBuilder18buildActivateRulesERKb
_ZN4rcss5clang10MsgBuilder18buildAddToCondListEv
_ZN4rcss5clang10MsgBuilder18buildBallMoveTokenERKNS0_13BallMoveTokenE
_ZN4rcss5clang10MsgBuilder18buildCondBallOwnerERKb
_ZN4rcss5clang10MsgBuilder18buildCondPlayerPosERKbRKiS5_
_ZN4rcss5clang10MsgBuilder18buildRuleIDListALLEv
_ZN4rcss5clang10MsgBuilder18checkAndGetRIDListEv
_ZN4rcss5clang10MsgBuilder18checkAndGetUNumSetEv
_ZN4rcss5clang10MsgBuilder18setFreeformMsgSizeEj
_ZN4rcss5clang10MsgBuilder19buildActMarkLineRegEv
_ZN4rcss5clang10MsgBuilder19buildActOffsideLineEv
_ZN4rcss5clang10MsgBuilder19buildCreateCondListEv
_ZN4rcss5clang10MsgBuilder19checkAndGetCondListB5cxx11Ev
_ZN4rcss5clang10MsgBuilder20buildActBallToPlayerEv
_ZN4rcss5clang10MsgBuilder20buildDefineModelRuleERKNSt7__cxx1112basic_stringIcSt11char_traitsIcESaIcEEE
_ZN4rcss5clang10MsgBuilder20checkAndGetMetaTokenEv
_ZN4rcss5clang10MsgBuilder21buildActivateAllRulesERKb
_ZN4rcss5clang10MsgBuilder22buildActMarkLinePlayerEv
_ZN4rcss5clang10MsgBuilder24buildDefineDirectiveRuleERKNSt7__cxx1112basic_stringIcSt11char_traitsIcESaIcEEE
_ZN4rcss5clang10MsgBuilder24checkAndGetActivateRulesEv
_ZN4rcss5clang10MsgBuilder3addENS0_13BallMoveTokenE
_ZN4rcss5clang10MsgBuilder3addENSt7__cxx1112basic_stringIcSt11char_traitsIcESaIcEEE
_ZN4rcss5clang10MsgBuilder3addEPNS0_10RuleIDListE
_ZN4rcss5clang10MsgBuilder3addEPNS0_13ActivateRulesE
_ZN4rcss5clang10MsgBuilder3addEPNS0_3DefE
_ZN4rcss5clang10MsgBuilder3addEPNS0_3DirE
_ZN4rcss5clang10MsgBuilder3addEPNS0_4CondE
_ZN4rcss5clang10MsgBuilder3addEPNS0_4RuleE
_ZN4rcss5clang10MsgBuilder3addEPNS0_4UNumE
_ZN4rcss5clang10MsgBuilder3addEPNS0_5PointE
_ZN4rcss5clang10MsgBuilder3addEPNS0_5TokenE
_ZN4rcss5clang10MsgBuilder3addEPNS0_6ActionE
_ZN4rcss5clang10MsgBuilder3addEPNS0_6RegionE
_ZN4rcss5clang10MsgBuilder3addEPNS0_7UNumSetE
_ZN4rcss5clang10MsgBuilder3addEPNS0_9MetaTokenE
_ZN4rcss5clang10MsgBuilder3addEPNSt7__cxx1112basic_stringIcSt11char_traitsIcESaIcEEE
_ZN4rcss5clang10MsgBuilder3addEPNSt7__cxx114listIPNS0_4CondESaIS5_EEE
_ZN4rcss5clang10MsgBuilder5clearEv
_ZN4rcss5clang10MsgBuilder6getBMTEv
_ZN4rcss5clang10MsgBuilder6getDefEv
_ZN4rcss5clang10MsgBuilder6getDirEv
_ZN4rcss5clang10MsgBuilder6getMsgEv
_ZN4rcss5clang10MsgBuilder6getRIDB5cxx11Ev
_ZN4rcss5clang10MsgBuilder6getStrB5cxx11Ev
_ZN4rcss5clang10MsgBuilder6setMsgEPNS0_3MsgE
_ZN4rcss5clang10MsgBuilder6setVerERKjS3_
_ZN4rcss5clang10MsgBuilder7getCondEv
_ZN4rcss5clang10MsgBuilder7getRuleEv
_ZN4rcss5clang10MsgBuilder7getUNumEv
_ZN4rcss5clang10MsgBuilder7setSideERKi
_ZN4rcss5clang10MsgBuilder7setTimeERKi
_ZN4rcss5clang10MsgBuilder8ItemType5clearEv
_ZN4rcss5clang10MsgBuilder8getPointEv
_ZN4rcss5clang10MsgBuilder8getTokenEv
_ZN4rcss5clang10MsgBuilder9buildUNumERKNS0_4UNumE
_ZN4rcss5clang10MsgBuilder9getActionEv
_ZN4rcss5clang10MsgBuilder9getRegionEv
_ZN4rcss5clang10MsgBuilderC1Ev
_ZN4rcss5clang10MsgBuilderC2Ev
_ZN4rcss5clang10MsgBuilderD0Ev
_ZN4rcss5clang10MsgBuilderD1Ev
_ZN4rcss5clang10MsgBuilderD2Ev
_ZN4rcss5clang10NestedRuleC1ESt8auto_ptrINS0_4CondEE
_ZN4rcss5clang10NestedRuleC1ESt8auto_ptrINS0_4CondEERKNSt7__cxx114listIPNS0_4RuleESaIS8_EEE
_ZN4rcss5clang10NestedRuleC2ESt8auto_ptrINS0_4CondEE
_ZN4rcss5clang10NestedRuleC2ESt8auto_ptrINS0_4CondEERKNSt7__cxx114listIPNS0_4RuleESaIS8_EEE
_ZN4rcss5clang10NestedRuleD0Ev
_ZN4rcss5clang10NestedRuleD1Ev
_ZN4rcss5clang10NestedRuleD2Ev
_ZN4rcss5clang10PointArithC1ERKS1_
_ZN4rcss5clang10PointArithC1ESt8auto_ptrINS0_5PointEES4_RKNS_4util7ArithOpE
_ZN4rcss5clang10PointArithC2ERKS1_
_ZN4rcss5clang10PointArithC2ESt8auto_ptrINS0_5PointEES4_RKNS_4util7ArithOpE
_ZN4rcss5clang10PointArithD0Ev
_ZN4rcss5clang10PointArithD1Ev
_ZN4rcss5clang10PointArithD2Ev
_ZN4rcss5clang10PointArithD5Ev
_ZN4rcss5clang10PointArithaSERKS1_
_ZN4rcss5clang10SimpleRuleC1ESt8auto_ptrINS0_4CondEE
_ZN4rcss5clang10SimpleRuleC1ESt8auto_ptrINS0_4CondEERKNSt7__cxx114listIPNS0_3DirESaIS8_EEE
_ZN4rcss5clang10SimpleRuleC2ESt8auto_ptrINS0_4CondEE
_ZN4rcss5clang10SimpleRuleC2ESt8auto_ptrINS0_4CondEERKNSt7__cxx114listIPNS0_3DirESaIS8_EEE
_ZN4rcss5clang10SimpleRuleD0Ev
_ZN4rcss5clang10SimpleRuleD1Ev
_ZN4rcss5clang10SimpleRuleD2Ev
_ZN4rcss5clang11ActPassUNum10getPlayersEv
_ZN4rcss5clang11ActPassUNum12clearPlayersEv
_ZN4rcss5clang11ActPassUNum3addERKNS0_4UNumE
_ZN4rcss5clang11ActPassUNumC1ERKNS0_7UNumSetE
_ZN4rcss5clang11ActPassUNumC1Ev
_ZN4rcss5clang11ActPassUNumC2ERKNS0_7UNumSetE
_ZN4rcss5clang11ActPassUNumC2Ev
_ZN4rcss5clang11ActPassUNumD0Ev
_ZN4rcss5clang11ActPassUNumD1Ev
_ZN4rcss5clang11ActPassUNumD2Ev
_ZN4rcss5clang11CondBallPosD0Ev
_ZN4rcss5clang11CondBallPosD1Ev
_ZN4rcss5clang11CondBallPosD2Ev
_ZN4rcss5clang11CondBallPosD5Ev
_ZN4rcss5clang11CondOppGoalD0Ev
_ZN4rcss5clang11CondOppGoalD1Ev
_ZN4rcss5clang11CondOppGoalD2Ev
_ZN4rcss5clang11CondOppGoalD5Ev
_ZN4rcss5clang11CondOurGoalD0Ev
_ZN4rcss5clang11CondOurGoalD1Ev
_ZN4rcss5clang11CondOurGoalD2Ev
_ZN4rcss5clang11CondOurGoalD5Ev
_ZN4rcss5clang11FreeformMsgC1ERKNSt7__cxx1112basic_stringIcSt11char_traitsIcESaIcEEE
_ZN4rcss5clang11FreeformMsgC1Ev
_ZN4rcss5clang11FreeformMsgC2ERKNSt7__cxx1112basic_stringIcSt11char_traitsIcESaIcEEE
_ZN4rcss5clang11FreeformMsgC2Ev
_ZN4rcss5clang11FreeformMsgD0Ev
_ZN4rcss5clang11FreeformMsgD1Ev
_ZN4rcss5clang11FreeformMsgD2Ev
_ZN4rcss5clang11PointPlayerD0Ev
_ZN4rcss5clang11PointPlayerD1Ev
_ZN4rcss5clang11PointPlayerD2Ev
_ZN4rcss5clang11PointPlayerD5Ev
_ZN4rcss5clang11PointSimpleD0Ev
_ZN4rcss5clang11PointSimpleD1Ev
_ZN4rcss5clang11PointSimpleD2Ev
_ZN4rcss5clang11PointSimpleD5Ev
_ZN4rcss5clang12ActBallToReg11clearBMTSetEv
_ZN4rcss5clang12ActBallToReg6addBMTENS0_13BallMoveTokenE
_ZN4rcss5clang12ActBallToReg9removeBMTENS0_13BallMoveTokenE
_ZN4rcss5clang12ActBallToRegC1ESt8auto_ptrINS0_6RegionEERKNS0_8BallMoveE
_ZN4rcss5clang12ActBallToRegC1Ev
_ZN4rcss5clang12ActBallToRegC2ESt8auto_ptrINS0_6RegionEERKNS0_8BallMoveE
_ZN4rcss5clang12ActBallToRegC2Ev
_ZN4rcss5clang12ActBallToRegD0Ev
_ZN4rcss5clang12ActBallToRegD1Ev
_ZN4rcss5clang12ActBallToRegD2Ev
_ZN4rcss5clang12ActInterceptC1Ev
_ZN4rcss5clang12ActInterceptC2Ev
_ZN4rcss5clang12ActInterceptD0Ev
_ZN4rcss5clang12ActInterceptD1Ev
_ZN4rcss5clang12ActInterceptD2Ev
_ZN4rcss5clang12CondGoalDiffD0Ev
_ZN4rcss5clang12CondGoalDiffD1Ev
_ZN4rcss5clang12CondGoalDiffD2Ev
_ZN4rcss5clang12CondGoalDiffD5Ev
_ZN4rcss5clang12CondPlayMode12MODE_STRINGSE
_ZN4rcss5clang12CondPlayModeD0Ev
_ZN4rcss5clang12CondPlayModeD1Ev
_ZN4rcss5clang12CondPlayModeD2Ev
_ZN4rcss5clang12CondPlayModeD5Ev
_ZN4rcss5clang12MetaTokenVerC1ERKd
_ZN4rcss5clang12MetaTokenVerC2ERKd
_ZN4rcss5clang12MetaTokenVerD0Ev
_ZN4rcss5clang12MetaTokenVerD1Ev
_ZN4rcss5clang12MetaTokenVerD2Ev
_ZN4rcss5clang13ActivateRules3setERKNS0_10RuleIDListE
_ZN4rcss5clang13ActivateRules3setEb
_ZN4rcss5clang13ActivateRulesC1EbRKNS0_10RuleIDListE
_ZN4rcss5clang13ActivateRulesC1Ev
_ZN4rcss5clang13ActivateRulesC2EbRKNS0_10RuleIDListE
_ZN4rcss5clang13ActivateRulesC2Ev
_ZN4rcss5clang13ActivateRulesD1Ev
_ZN4rcss5clang13ActivateRulesD2Ev
_ZN4rcss5clang13CondBallOwnerD0Ev
_ZN4rcss5clang13CondBallOwnerD1Ev
_ZN4rcss5clang13CondBallOwnerD2Ev
_ZN4rcss5clang13CondBallOwnerD5Ev
_ZN4rcss5clang13CondPlayerPosD0Ev
_ZN4rcss5clang13CondPlayerPosD1Ev
_ZN4rcss5clang13CondPlayerPosD2Ev
_ZN4rcss5clang13CondPlayerPosD5Ev
_ZN4rcss5clang14ActMarkLineReg12detachRegionEv
_ZN4rcss5clang14ActMarkLineRegC1ESt8auto_ptrINS0_6RegionEE
_ZN4rcss5clang14ActMarkLineRegC1Ev
_ZN4rcss5clang14ActMarkLineRegC2ESt8auto_ptrINS0_6RegionEE
_ZN4rcss5clang14ActMarkLineRegC2Ev
_ZN4rcss5clang14ActMarkLineRegD0Ev
_ZN4rcss5clang14ActMarkLineRegD1Ev
_ZN4rcss5clang14ActMarkLineRegD2Ev
_ZN4rcss5clang15ActBallToPlayer10getPlayersEv
_ZN4rcss5clang15ActBallToPlayer10setPlayersERKNS0_7UNumSetE
_ZN4rcss5clang15ActBallToPlayer12clearPlayersEv
_ZN4rcss5clang15ActBallToPlayer9addPlayerERKNS0_4UNumE
_ZN4rcss5clang15ActBallToPlayerC1ERKNS0_7UNumSetE
_ZN4rcss5clang15ActBallToPlayerC1Ev
_ZN4rcss5clang15ActBallToPlayerC2ERKNS0_7UNumSetE
_ZN4rcss5clang15ActBallToPlayerC2Ev
_ZN4rcss5clang15ActBallToPlayerD0Ev
_ZN4rcss5clang15ActBallToPlayerD1Ev
_ZN4rcss5clang15ActBallToPlayerD2Ev
_ZN4rcss5clang15ActOffsidesLine12detachRegionEv
_ZN4rcss5clang15ActOffsidesLineC1ESt8auto_ptrINS0_6RegionEE
_ZN4rcss5clang15ActOffsidesLineC1Ev
_ZN4rcss5clang15ActOffsidesLineC2ESt8auto_ptrINS0_6RegionEE
_ZN4rcss5clang15ActOffsidesLineC2Ev
_ZN4rcss5clang15ActOffsidesLineD0Ev
_ZN4rcss5clang15ActOffsidesLineD1Ev
_ZN4rcss5clang15ActOffsidesLineD2Ev
_ZN4rcss5clang17ActMarkLinePlayer10getPlayersEv
_ZN4rcss5clang17ActMarkLinePlayer10setPlayersERKNS0_7UNumSetE
_ZN4rcss5clang17ActMarkLinePlayer12clearPlayersEv
_ZN4rcss5clang17ActMarkLinePlayer9addPlayerERKNS0_4UNumE
_ZN4rcss5clang17ActMarkLinePlayerC1ERKNS0_7UNumSetE
_ZN4rcss5clang17ActMarkLinePlayerC1Ev
_ZN4rcss5clang17ActMarkLinePlayerC2ERKNS0_7UNumSetE
_ZN4rcss5clang17ActMarkLinePlayerC2Ev
_ZN4rcss5clang17ActMarkLinePlayerD0Ev
_ZN4rcss5clang17ActMarkLinePlayerD1Ev
_ZN4rcss5clang17ActMarkLinePlayerD2Ev
_ZN4rcss5clang3DefD0Ev
_ZN4rcss5clang3DefD1Ev
_ZN4rcss5clang3DefD2Ev
_ZN4rcss5clang3DefD5Ev
_ZN4rcss5clang3Msg11setTimeRecvEi
_ZN4rcss5clang3Msg11setTimeSendEi
_ZN4rcss5clang3Msg6setVerEjj
_ZN4rcss5clang3Msg7setSideEi
_ZN4rcss5clang3MsgC1ERKi
_ZN4rcss5clang3MsgC1Ev
_ZN4rcss5clang3MsgC2ERKi
_ZN4rcss5clang3MsgC2Ev
_ZN4rcss5clang3MsgD0Ev
_ZN4rcss5clang3MsgD1Ev
_ZN4rcss5clang3MsgD2Ev
_ZN4rcss5clang4RuleD0Ev
_ZN4rcss5clang4RuleD1Ev
_ZN4rcss5clang4RuleD2Ev
_ZN4rcss5clang4UNumC1ERKS1_
_ZN4rcss5clang4UNumC2ERKS1_
_ZN4rcss5clang4UNumC5ERKS1_
_ZN4rcss5clang6ActPosC1ESt8auto_ptrINS0_6RegionEE
_ZN4rcss5clang6ActPosC1Ev
_ZN4rcss5clang6ActPosC2ESt8auto_ptrINS0_6RegionEE
_ZN4rcss5clang6ActPosC2Ev
_ZN4rcss5clang6ActPosD0Ev
_ZN4rcss5clang6ActPosD1Ev
_ZN4rcss5clang6ActPosD2Ev
_ZN4rcss5clang6ActionD0Ev
_ZN4rcss5clang6ActionD1Ev
_ZN4rcss5clang6ActionD2Ev
_ZN4rcss5clang6CondOrD0Ev
_ZN4rcss5clang6CondOrD1Ev
_ZN4rcss5clang6CondOrD2Ev
_ZN4rcss5clang6DefActD0Ev
_ZN4rcss5clang6DefActD1Ev
_ZN4rcss5clang6DefActD2Ev
_ZN4rcss5clang6DefActD5Ev
_ZN4rcss5clang6DefDirD0Ev
_ZN4rcss5clang6DefDirD1Ev
_ZN4rcss5clang6DefDirD2Ev
_ZN4rcss5clang6DefDirD5Ev
_ZN4rcss5clang6DefRegD0Ev
_ZN4rcss5clang6DefRegD1Ev
_ZN4rcss5clang6DefRegD2Ev
_ZN4rcss5clang6DefRegD5Ev
_ZN4rcss5clang6DelMsgC1ERKNS0_10RuleIDListE
_ZN4rcss5clang6DelMsgC1Ev
_ZN4rcss5clang6DelMsgC2ERKNS0_10RuleIDListE
_ZN4rcss5clang6DelMsgC2Ev
_ZN4rcss5clang6DelMsgD0Ev
_ZN4rcss5clang6DelMsgD1Ev
_ZN4rcss5clang6DelMsgD2Ev
_ZN4rcss5clang6Parser5parseEPKc
_ZN4rcss5clang6Parser7doParseERSi
_ZN4rcss5clang6ParserC1ERNS0_7BuilderE
_ZN4rcss5clang6ParserC2ERNS0_7BuilderE
_ZN4rcss5clang6ParserD0Ev
_ZN4rcss5clang6ParserD1Ev
_ZN4rcss5clang6ParserD2Ev
_ZN4rcss5clang6ParserD5Ev
_ZN4rcss5clang6RegArcC1ESt8auto_ptrINS0_5PointEERKdS6_S6_S6_
_ZN4rcss5clang6RegArcC1Ev
_ZN4rcss5clang6RegArcC2ESt8auto_ptrINS0_5PointEERKdS6_S6_S6_
_ZN4rcss5clang6RegArcC2Ev
_ZN4rcss5clang6RegArcD0Ev
_ZN4rcss5clang6RegArcD1Ev
_ZN4rcss5clang6RegArcD2Ev
_ZN4rcss5clang6RegArcD5Ev
_ZN4rcss5clang6RegRecC1ESt8auto_ptrINS0_5PointEES4_
_ZN4rcss5clang6RegRecC2ESt8auto_ptrINS0_5PointEES4_
_ZN4rcss5clang6RegRecD0Ev
_ZN4rcss5clang6RegRecD1Ev
_ZN4rcss5clang6RegRecD2Ev
_ZN4rcss5clang6RegRecD5Ev
_ZN4rcss5clang6RegTriC1ESt8auto_ptrINS0_5PointEES4_S4_
_ZN4rcss5clang6RegTriC2ESt8auto_ptrINS0_5PointEES4_S4_
_ZN4rcss5clang6RegTriD0Ev
_ZN4rcss5clang6RegTriD1Ev
_ZN4rcss5clang6RegTriD2Ev
_ZN4rcss5clang6RegTriD5Ev
_ZN4rcss5clang7ActHoldC1Ev
_ZN4rcss5clang7ActHoldC2Ev
_ZN4rcss5clang7ActHoldD0Ev
_ZN4rcss5clang7ActHoldD1Ev
_ZN4rcss5clang7ActHoldD2Ev
_ZN4rcss5clang7ActHomeC1ESt8auto_ptrINS0_6RegionEE
_ZN4rcss5clang7ActHomeC1Ev
_ZN4rcss5clang7ActHomeC2ESt8auto_ptrINS0_6RegionEE
_ZN4rcss5clang7ActHomeC2Ev
_ZN4rcss5clang7ActHomeD0Ev
_ZN4rcss5clang7ActHomeD1Ev
_ZN4rcss5clang7ActHomeD2Ev
_ZN4rcss5clang7ActMark10getPlayersEv
_ZN4rcss5clang7ActMark10setPlayersERKNS0_7UNumSetE
_ZN4rcss5clang7ActMark12clearPlayersEv
_ZN4rcss5clang7ActMark9addPlayerERKNS0_4UNumE
_ZN4rcss5clang7ActMarkC1ERKNS0_7UNumSetE
_ZN4rcss5clang7ActMarkC1Ev
_ZN4rcss5clang7ActMarkC2ERKNS0_7UNumSetE
_ZN4rcss5clang7ActMarkC2Ev
_ZN4rcss5clang7ActMarkD0Ev
_ZN4rcss5clang7ActMarkD1Ev
_ZN4rcss5clang7ActMarkD2Ev
_ZN4rcss5clang7Builder6setVerERKj
_ZN4rcss5clang7CondAndD0Ev
_ZN4rcss5clang7CondAndD1Ev
_ZN4rcss5clang7CondAndD2Ev
_ZN4rcss5clang7CondNotD0Ev
_ZN4rcss5clang7CondNotD1Ev
_ZN4rcss5clang7CondNotD2Ev
_ZN4rcss5clang7CondNotD5Ev
_ZN4rcss5clang7DefCondD0Ev
_ZN4rcss5clang7DefCondD1Ev
_ZN4rcss5clang7DefCondD2Ev
_ZN4rcss5clang7DefCondD5Ev
_ZN4rcss5clang7DefRuleD0Ev
_ZN4rcss5clang7DefRuleD1Ev
_ZN4rcss5clang7DefRuleD2Ev
_ZN4rcss5clang7DefRuleD5Ev
_ZN4rcss5clang7DirComm12clearActionsEv
_ZN4rcss5clang7DirComm13detachActionsB5cxx11Ev
_ZN4rcss5clang7DirCommD0Ev
_ZN4rcss5clang7DirCommD1Ev
_ZN4rcss5clang7DirCommD2Ev
_ZN4rcss5clang7DirCommD5Ev
_ZN4rcss5clang7InfoMsgC1ERKNSt7__cxx114listIPNS0_5TokenESaIS5_EEE
_ZN4rcss5clang7InfoMsgC1Ev
_ZN4rcss5clang7InfoMsgC2ERKNSt7__cxx114listIPNS0_5TokenESaIS5_EEE
_ZN4rcss5clang7InfoMsgC2Ev
_ZN4rcss5clang7InfoMsgD0Ev
_ZN4rcss5clang7InfoMsgD1Ev
_ZN4rcss5clang7InfoMsgD2Ev
_ZN4rcss5clang7MetaMsgC1ERKNSt7__cxx114listIPNS0_9MetaTokenESaIS5_EEE
_ZN4rcss5clang7MetaMsgC1Ev
_ZN4rcss5clang7MetaMsgC2ERKNSt7__cxx114listIPNS0_9MetaTokenESaIS5_EEE
_ZN4rcss5clang7MetaMsgC2Ev
_ZN4rcss5clang7MetaMsgD0Ev
_ZN4rcss5clang7MetaMsgD1Ev
_ZN4rcss5clang7MetaMsgD2Ev
_ZN4rcss5clang7RegNullD0Ev
_ZN4rcss5clang7RegNullD1Ev
_ZN4rcss5clang7RegNullD2Ev
_ZN4rcss5clang7RegNullD5Ev
_ZN4rcss5clang7RegQuadC1ESt8auto_ptrINS0_5PointEES4_S4_S4_
_ZN4rcss5clang7RegQuadC2ESt8auto_ptrINS0_5PointEES4_S4_S4_
_ZN4rcss5clang7RegQuadD0Ev
_ZN4rcss5clang7RegQuadD1Ev
_ZN4rcss5clang7RegQuadD2Ev
_ZN4rcss5clang7RegQuadD5Ev
_ZN4rcss5clang7RuleMsgC1ERKNSt7__cxx114listINS0_13ActivateRulesESaIS4_EEE
_ZN4rcss5clang7RuleMsgC1Ev
_ZN4rcss5clang7RuleMsgC2ERKNSt7__cxx114listINS0_13ActivateRulesESaIS4_EEE
_ZN4rcss5clang7RuleMsgC2Ev
_ZN4rcss5clang7RuleMsgD0Ev
_ZN4rcss5clang7RuleMsgD1Ev
_ZN4rcss5clang7RuleMsgD2Ev
_ZN4rcss5clang7TokRule9clearDirsEv
_ZN4rcss5clang7TokRuleD0Ev
_ZN4rcss5clang7TokRuleD1Ev
_ZN4rcss5clang7TokRuleD2Ev
_ZN4rcss5clang7TokRuleD5Ev
_ZN4rcss5clang8ActClear12detachRegionEv
_ZN4rcss5clang8ActClearC1ESt8auto_ptrINS0_6RegionEE
_ZN4rcss5clang8ActClearC1Ev
_ZN4rcss5clang8ActClearC2ESt8auto_ptrINS0_6RegionEE
_ZN4rcss5clang8ActClearC2Ev
_ZN4rcss5clang8ActClearD0Ev
_ZN4rcss5clang8ActClearD1Ev
_ZN4rcss5clang8ActClearD2Ev
_ZN4rcss5clang8ActNamed7getNameB5cxx11Ev
_ZN4rcss5clang8ActNamed7setNameERKNSt7__cxx1112basic_stringIcSt11char_traitsIcESaIcEEE
_ZN4rcss5clang8ActNamedC1ERKNSt7__cxx1112basic_stringIcSt11char_traitsIcESaIcEEE
_ZN4rcss5clang8ActNamedC2ERKNSt7__cxx1112basic_stringIcSt11char_traitsIcESaIcEEE
_ZN4rcss5clang8ActNamedD0Ev
_ZN4rcss5clang8ActNamedD1Ev
_ZN4rcss5clang8ActNamedD2Ev
_ZN4rcss5clang8ActShootC1Ev
_ZN4rcss5clang8ActShootC2Ev
_ZN4rcss5clang8ActShootD0Ev
_ZN4rcss5clang8ActShootD1Ev
_ZN4rcss5clang8ActShootD2Ev
_ZN4rcss5clang8BallMove11removeTokenERKNS0_13BallMoveTokenE
_ZN4rcss5clang8BallMove13TOKEN_STRINGSE
_ZN4rcss5clang8BallMove8addTokenERKNS0_13BallMoveTokenE
_ZN4rcss5clang8BallMove9TOKEN_MAXE
_ZN4rcss5clang8CondBoolD0Ev
_ZN4rcss5clang8CondBoolD1Ev
_ZN4rcss5clang8CondBoolD2Ev
_ZN4rcss5clang8CondBoolD5Ev
_ZN4rcss5clang8CondRule10detachCondEv
_ZN4rcss5clang8CondRuleC1ESt8auto_ptrINS0_4CondEE
_ZN4rcss5clang8CondRuleC2ESt8auto_ptrINS0_4CondEE
_ZN4rcss5clang8CondRuleD0Ev
_ZN4rcss5clang8CondRuleD1Ev
_ZN4rcss5clang8CondRuleD2Ev
_ZN4rcss5clang8CondTimeD0Ev
_ZN4rcss5clang8CondTimeD1Ev
_ZN4rcss5clang8CondTimeD2Ev
_ZN4rcss5clang8CondTimeD5Ev
_ZN4rcss5clang8CondUNumD0Ev
_ZN4rcss5clang8CondUNumD1Ev
_ZN4rcss5clang8CondUNumD2Ev
_ZN4rcss5clang8CondUNumD5Ev
_ZN4rcss5clang8DirNamedD0Ev
_ZN4rcss5clang8DirNamedD1Ev
_ZN4rcss5clang8DirNamedD2Ev
_ZN4rcss5clang8DirNamedD5Ev
_ZN4rcss5clang8PointRelD0Ev
_ZN4rcss5clang8PointRelD1Ev
_ZN4rcss5clang8PointRelD2Ev
_ZN4rcss5clang8PointRelD5Ev
_ZN4rcss5clang8RegNamedD0Ev
_ZN4rcss5clang8RegNamedD1Ev
_ZN4rcss5clang8RegNamedD2Ev
_ZN4rcss5clang8RegNamedD5Ev
_ZN4rcss5clang8RegPointC1ERKS1_
_ZN4rcss5clang8RegPointC1ESt8auto_ptrINS0_5PointEE
_ZN4rcss5clang8RegPointC2ERKS1_
_ZN4rcss5clang8RegPointC2ESt8auto_ptrINS0_5PointEE
_ZN4rcss5clang8RegPointD0Ev
_ZN4rcss5clang8RegPointD1Ev
_ZN4rcss5clang8RegPointD2Ev
_ZN4rcss5clang8RegUnion9deleteAllEv
_ZN4rcss5clang8RegUnionD0Ev
_ZN4rcss5clang8RegUnionD1Ev
_ZN4rcss5clang8RegUnionD2Ev
_ZN4rcss5clang8RegUnionD5Ev
_ZN4rcss5clang8TokClearD0Ev
_ZN4rcss5clang8TokClearD1Ev
_ZN4rcss5clang8TokClearD2Ev
_ZN4rcss5clang8TokClearD5Ev
_ZN4rcss5clang9ActTackle10getPlayersEv
_ZN4rcss5clang9ActTackle10setPlayersERKNS0_7UNumSetE
_ZN4rcss5clang9ActTackle12clearPlayersEv
_ZN4rcss5clang9ActTackle9addPlayerERKNS0_4UNumE
_ZN4rcss5clang9ActTackleC1ERKNS0_7UNumSetE
_ZN4rcss5clang9ActTackleC1Ev
_ZN4rcss5clang9ActTackleC2ERKNS0_7UNumSetE
_ZN4rcss5clang9ActTackleC2Ev
_ZN4rcss5clang9ActTackleD0Ev
_ZN4rcss5clang9ActTackleD1Ev
_ZN4rcss5clang9ActTackleD2Ev
_ZN4rcss5clang9AdviceMsgC1ERKNSt7__cxx114listIPNS0_5TokenESaIS5_EEE
_ZN4rcss5clang9AdviceMsgC1Ev
_ZN4rcss5clang9AdviceMsgC2ERKNSt7__cxx114listIPNS0_5TokenESaIS5_EEE
_ZN4rcss5clang9AdviceMsgC2Ev
_ZN4rcss5clang9AdviceMsgD0Ev
_ZN4rcss5clang9AdviceMsgD1Ev
_ZN4rcss5clang9AdviceMsgD2Ev
_ZN4rcss5clang9CondNamedD0Ev
_ZN4rcss5clang9CondNamedD1Ev
_ZN4rcss5clang9CondNamedD2Ev
_ZN4rcss5clang9CondNamedD5Ev
_ZN4rcss5clang9DefineMsgC1ERKNSt7__cxx114listIPNS0_3DefESaIS5_EEE
_ZN4rcss5clang9DefineMsgC1Ev
_ZN4rcss5clang9DefineMsgC2ERKNSt7__cxx114listIPNS0_3DefESaIS5_EEE
_ZN4rcss5clang9DefineMsgC2Ev
_ZN4rcss5clang9DefineMsgD0Ev
_ZN4rcss5clang9DefineMsgD1Ev
_ZN4rcss5clang9DefineMsgD2Ev
_ZN4rcss5clang9MetaTokenC1Ev
_ZN4rcss5clang9MetaTokenC2Ev
_ZN4rcss5clang9MetaTokenD0Ev
_ZN4rcss5clang9MetaTokenD1Ev
_ZN4rcss5clang9MetaTokenD2Ev
_ZN4rcss5clang9PointBallD0Ev
_ZN4rcss5clang9PointBallD1Ev
_ZN4rcss5clang9PointBallD2Ev
_ZN4rcss5clang9PointBallD5Ev
_ZN4rcss5clang9UnsuppMsgC1Ev
_ZN4rcss5clang9UnsuppMsgC2Ev
_ZN4rcss5clang9UnsuppMsgD0Ev
_ZN4rcss5clang9UnsuppMsgD1Ev
_ZN4rcss5clang9UnsuppMsgD2Ev
_ZN4rcss5clanglsERSoRKNS0_10RuleIDListE
_ZN4rcss5clanglsERSoRKNS0_13ActivateRulesE
_ZN4rcss5clanglsERSoRKNS0_3DirE
_ZN4rcss5clanglsERSoRKNS0_4CondE
_ZN4rcss5clanglsERSoRKNS0_4RuleE
_ZN4rcss5clanglsERSoRKNS0_4UNumE
_ZN4rcss5clanglsERSoRKNS0_5PointE
_ZN4rcss5clanglsERSoRKNS0_6ActionE
_ZN4rcss5clanglsERSoRKNS0_6RegionE
_ZN4rcss5clanglsERSoRKNS0_7UNumSetE
_ZN4rcss6Parser5parseERKN5boost10filesystem4pathERSo
_ZN4rcss6Parser5parseERSiRKNSt7__cxx1112basic_stringIcSt11char_traitsIcESaIcEEE
_ZN4rcss6Parser7doParseERSiRSo
_ZN5boost10filesystem14basic_ifstreamIcSt11char_traitsIcEEC1ERKNS0_4pathE
_ZN5boost10filesystem14basic_ifstreamIcSt11char_traitsIcEEC2ERKNS0_4pathE
_ZN5boost10filesystem14basic_ifstreamIcSt11char_traitsIcEEC5ERKNS0_4pathE
_ZN5boost10filesystem14basic_ifstreamIcSt11char_traitsIcEED0Ev
_ZN5boost10filesystem14basic_ifstreamIcSt11char_traitsIcEED1Ev
_ZN5boost10filesystem14basic_ifstreamIcSt11char_traitsIcEED2Ev
_ZN5boost10filesystem14basic_ifstreamIcSt11char_traitsIcEED4Ev
_ZN5boost10filesystem14basic_ifstreamIcSt11char_traitsIcEED5Ev
_ZN5boost10filesystem14basic_ofstreamIcSt11char_traitsIcEEC1ERKNS0_4pathE
_ZN5boost10filesystem14basic_ofstreamIcSt11char_traitsIcEEC2ERKNS0_4pathE
_ZN5boost10filesystem14basic_ofstreamIcSt11char_traitsIcEEC5ERKNS0_4pathE
_ZN5boost10filesystem14basic_ofstreamIcSt11char_traitsIcEED0Ev
_ZN5boost10filesystem14basic_ofstreamIcSt11char_traitsIcEED1Ev
_ZN5boost10filesystem14basic_ofstreamIcSt11char_traitsIcEED2Ev
_ZN5boost10filesystem14basic_ofstreamIcSt11char_traitsIcEED4Ev
_ZN5boost10filesystem14basic_ofstreamIcSt11char_traitsIcEED5Ev
_ZN5boost10filesystem4pathdVERKS1_
_ZN5boost10filesystem6detail12current_pathEPNS_6system10error_codeE
_ZN5boost10filesystem6detail6statusERKNS0_4pathEPNS_6system10error_codeE
_ZN5boost10filesystem8absoluteERKNS0_4pathES3_
_ZN5boost10scoped_ptrINS_6spirit7classic4impl15abstract_parserINS2_7scannerIPKcNS2_16scanner_policiesINS2_16iteration_policyENS2_12match_policyENS2_13action_policyEEEEENS2_5nil_tEEEED1Ev
_ZN5boost10scoped_ptrINS_6spirit7classic4impl15abstract_parserINS2_7scannerIPKcNS2_16scanner_policiesINS2_16iteration_policyENS2_12match_policyENS2_13action_policyEEEEENS2_5nil_tEEEED2Ev
_ZN5boost10scoped_ptrINS_6spirit7classic4impl15abstract_parserINS2_7scannerIPKcNS2_16scanner_policiesINS2_16iteration_policyENS2_12match_policyENS2_13action_policyEEEEENS2_5nil_tEEEED5Ev
_ZN5boost10shared_ptrIN4rcss3net8AddrImplEEaSERKS4_
_ZN5boost10shared_ptrINS_6spirit7classic11basic_chsetIcEEEC1IS4_EEPT_
_ZN5boost10shared_ptrINS_6spirit7classic11basic_chsetIcEEEC2IS4_EEPT_
_ZN5boost10shared_ptrINS_6spirit7classic11basic_chsetIcEEEC5IS4_EEPT_
_ZN5boost10shared_ptrIiE5resetEv
_ZN5boost10shared_ptrIiEaSERKS1_
_ZN5boost14checked_deleteIN4rcss3net8AddrImplEEEvPT_
_ZN5boost15optional_detail13optional_baseIcE7destroyEv
_ZN5boost15optional_detail13optional_baseIdE7destroyEv
_ZN5boost15throw_exceptionINS_6spirit7classic12parser_errorIN4rcss4conf6Parser6ErrorsEPKcEEEEvRKT_
_ZN5boost16exception_detail10clone_implINS0_19error_info_injectorINS_6spirit7classic12parser_errorIN4rcss4conf6Parser6ErrorsEPKcEEEEEC1ERKSD_
_ZN5boost16exception_detail10clone_implINS0_19error_info_injectorINS_6spirit7classic12parser_errorIN4rcss4conf6Parser6ErrorsEPKcEEEEEC1ERKSE_
_ZN5boost16exception_detail10clone_implINS0_19error_info_injectorINS_6spirit7classic12parser_errorIN4rcss4conf6Parser6ErrorsEPKcEEEEEC2ERKSD_
_ZN5boost16exception_detail10clone_implINS0_19error_info_injectorINS_6spirit7classic12parser_errorIN4rcss4conf6Parser6ErrorsEPKcEEEEEC2ERKSE_
_ZN5boost16exception_detail10clone_implINS0_19error_info_injectorINS_6spirit7classic12parser_errorIN4rcss4conf6Parser6ErrorsEPKcEEEEEC5ERKSD_
_ZN5boost16exception_detail10clone_implINS0_19error_info_injectorINS_6spirit7classic12parser_errorIN4rcss4conf6Parser6ErrorsEPKcEEEEEC5ERKSE_
_ZN5boost16exception_detail10clone_implINS0_19error_info_injectorINS_6spirit7classic12parser_errorIN4rcss4conf6Parser6ErrorsEPKcEEEEED0Ev
_ZN5boost16exception_detail10clone_implINS0_19error_info_injectorINS_6spirit7classic12parser_errorIN4rcss4conf6Parser6ErrorsEPKcEEEEED1Ev
_ZN5boost16exception_detail10clone_implINS0_19error_info_injectorINS_6spirit7classic12parser_errorIN4rcss4conf6Parser6ErrorsEPKcEEEEED2Ev
_ZN5boost16exception_detail10clone_implINS0_19error_info_injectorINS_6spirit7classic12parser_errorIN4rcss4conf6Parser6ErrorsEPKcEEEEED4Ev
_ZN5boost16exception_detail10clone_implINS0_19error_info_injectorINS_6spirit7classic12parser_errorIN4rcss4conf6Parser6ErrorsEPKcEEEEED5Ev
_ZN5boost16exception_detail12refcount_ptrINS0_20error_info_containerEE7add_refEv
_ZN5boost16exception_detail12refcount_ptrINS0_20error_info_containerEE7releaseEv
_ZN5boost16exception_detail19error_info_injectorINS_6spirit7classic12parser_errorIN4rcss4conf6Parser6ErrorsEPKcEEEC1ERKSC_
_ZN5boost16exception_detail19error_info_injectorINS_6spirit7classic12parser_errorIN4rcss4conf6Parser6ErrorsEPKcEEEC2ERKSC_
_ZN5boost16exception_detail19error_info_injectorINS_6spirit7classic12parser_errorIN4rcss4conf6Parser6ErrorsEPKcEEEC5ERKSC_
_ZN5boost16exception_detail19error_info_injectorINS_6spirit7classic12parser_errorIN4rcss4conf6Parser6ErrorsEPKcEEED0Ev
_ZN5boost16exception_detail19error_info_injectorINS_6spirit7classic12parser_errorIN4rcss4conf6Parser6ErrorsEPKcEEED1Ev
_ZN5boost16exception_detail19error_info_injectorINS_6spirit7classic12parser_errorIN4rcss4conf6Parser6ErrorsEPKcEEED2Ev
_ZN5boost16exception_detail19error_info_injectorINS_6spirit7classic12parser_errorIN4rcss4conf6Parser6ErrorsEPKcEEED5Ev
_ZN5boost16exception_detail20copy_boost_exceptionEPNS_9exceptionEPKS1_
_ZN5boost6detail12shared_countC1ERKS1_
_ZN5boost6detail12shared_countC1IPiPFvS3_EEET_T0_
_ZN5boost6detail12shared_countC2ERKS1_
_ZN5boost6detail12shared_countC2IPiPFvS3_EEET_T0_
_ZN5boost6detail12shared_countC5ERKS1_
_ZN5boost6detail12shared_countC5IPiPFvS3_EEET_T0_
_ZN5boost6detail12shared_countD1Ev
_ZN5boost6detail12shared_countD2Ev
_ZN5boost6detail12shared_countD5Ev
_ZN5boost6detail15sp_counted_base7destroyEv
_ZN5boost6detail15sp_counted_base7releaseEv
_ZN5boost6detail17sp_counted_impl_pIN4rcss2gz16gzstreambuf_implEE11get_deleterERKSt9type_info
_ZN5boost6detail17sp_counted_impl_pIN4rcss2gz16gzstreambuf_implEE19get_untyped_deleterEv
_ZN5boost6detail17sp_counted_impl_pIN4rcss2gz16gzstreambuf_implEE7disposeEv
_ZN5boost6detail17sp_counted_impl_pIN4rcss2gz16gzstreambuf_implEED0Ev
_ZN5boost6detail17sp_counted_impl_pIN4rcss2gz16gzstreambuf_implEED1Ev
_ZN5boost6detail17sp_counted_impl_pIN4rcss2gz16gzstreambuf_implEED2Ev
_ZN5boost6detail17sp_counted_impl_pIN4rcss2gz16gzstreambuf_implEED5Ev
_ZN5boost6detail17sp_counted_impl_pIN4rcss3net8AddrImplEE11get_deleterERKSt9type_info
_ZN5boost6detail17sp_counted_impl_pIN4rcss3net8AddrImplEE19get_untyped_deleterEv
_ZN5boost6detail17sp_counted_impl_pIN4rcss3net8AddrImplEE7disposeEv
_ZN5boost6detail17sp_counted_impl_pIN4rcss3net8AddrImplEED0Ev
_ZN5boost6detail17sp_counted_impl_pIN4rcss3net8AddrImplEED1Ev
_ZN5boost6detail17sp_counted_impl_pIN4rcss3net8AddrImplEED2Ev
_ZN5boost6detail17sp_counted_impl_pIN4rcss3net8AddrImplEED5Ev
_ZN5boost6detail17sp_counted_impl_pINS_6spirit7classic11basic_chsetIcEEE11get_deleterERKSt9type_info
_ZN5boost6detail17sp_counted_impl_pINS_6spirit7classic11basic_chsetIcEEE19get_untyped_deleterEv
_ZN5boost6detail17sp_counted_impl_pINS_6spirit7classic11basic_chsetIcEEE7disposeEv
_ZN5boost6detail17sp_counted_impl_pINS_6spirit7classic11basic_chsetIcEEED0Ev
_ZN5boost6detail17sp_counted_impl_pINS_6spirit7classic11basic_chsetIcEEED1Ev
_ZN5boost6detail17sp_counted_impl_pINS_6spirit7classic11basic_chsetIcEEED2Ev
_ZN5boost6detail17sp_counted_impl_pINS_6spirit7classic11basic_chsetIcEEED5Ev
_ZN5boost6detail18sp_counted_impl_pdIPiPFvS2_EE11get_deleterERKSt9type_info
_ZN5boost6detail18sp_counted_impl_pdIPiPFvS2_EE19get_untyped_deleterEv
_ZN5boost6detail18sp_counted_impl_pdIPiPFvS2_EE7disposeEv
_ZN5boost6detail18sp_counted_impl_pdIPiPFvS2_EED0Ev
_ZN5boost6detail18sp_counted_impl_pdIPiPFvS2_EED1Ev
_ZN5boost6detail18sp_counted_impl_pdIPiPFvS2_EED2Ev
_ZN5boost6detail18sp_counted_impl_pdIPiPFvS2_EED5Ev
_ZN5boost6detail20sp_pointer_constructIN4rcss3net8AddrImplES4_EEvPNS_10shared_ptrIT_EEPT0_RNS0_12shared_countE.isra.20
_ZN5boost6spirit7classic12parser_errorIN4rcss4conf6Parser6ErrorsEPKcED0Ev
_ZN5boost6spirit7classic12parser_errorIN4rcss4conf6Parser6ErrorsEPKcED1Ev
_ZN5boost6spirit7classic12parser_errorIN4rcss4conf6Parser6ErrorsEPKcED2Ev
_ZN5boost6spirit7classic12parser_errorIN4rcss4conf6Parser6ErrorsEPKcED5Ev
_ZN5boost6spirit7classic17parser_error_baseD0Ev
_ZN5boost6spirit7classic17parser_error_baseD1Ev
_ZN5boost6spirit7classic17parser_error_baseD2Ev
_ZN5boost6spirit7classic17parser_error_baseD5Ev
_ZN5boost6spirit7classic21ureal_parser_policiesIdE9parse_expIKNS1_7scannerIPKcNS1_16scanner_policiesINS1_16iteration_policyENS1_12match_policyENS1_13action_policyEEEEEEENS1_13parser_resultINS1_5chlitIcEET_E4typeERSI_
_ZN5boost6spirit7classic4impl11extract_intILi10ELj1ELin1ENS2_19negative_accumulateIdLi10EEEE1fIKNS1_7scannerIPKcNS1_16scanner_policiesINS1_16iteration_policyENS1_12match_policyENS1_13action_policyEEEEEdEEbRT_RT0_Rm
_ZN5boost6spirit7classic4impl11extract_intILi10ELj1ELin1ENS2_19negative_accumulateIiLi10EEEE1fIKNS1_7scannerIPKcNS1_16scanner_policiesINS1_16iteration_policyENS1_12match_policyENS1_13action_policyEEEEEiEEbRT_RT0_Rm
_ZN5boost6spirit7classic4impl11extract_intILi10ELj1ELin1ENS2_19positive_accumulateIdLi10EEEE1fIKNS1_7scannerIPKcNS1_16scanner_policiesINS1_16iteration_policyENS1_12match_policyENS1_13action_policyEEEEEdEEbRT_RT0_Rm
_ZN5boost6spirit7classic4impl11extract_intILi10ELj1ELin1ENS2_19positive_accumulateIiLi10EEEE1fIKNS1_7scannerIPKcNS1_16scanner_policiesINS1_16iteration_policyENS1_12match_policyENS1_13action_policyEEEEEiEEbRT_RT0_Rm
_ZN5boost6spirit7classic4impl12extract_signINS1_7scannerIPKcNS1_16scanner_policiesINS1_16iteration_policyENS1_12match_policyENS1_13action_policyEEEEEEEbRKT_Rm
_ZN5boost6spirit7classic4impl15concrete_parserINS1_10eol_parserENS1_7scannerIPKcNS1_16scanner_policiesINS1_16iteration_policyENS1_12match_policyENS1_13action_policyEEEEENS1_5nil_tEED0Ev
_ZN5boost6spirit7classic4impl15concrete_parserINS1_10eol_parserENS1_7scannerIPKcNS1_16scanner_policiesINS1_16iteration_policyENS1_12match_policyENS1_13action_policyEEEEENS1_5nil_tEED1Ev
_ZN5boost6spirit7classic4impl15concrete_parserINS1_10eol_parserENS1_7scannerIPKcNS1_16scanner_policiesINS1_16iteration_policyENS1_12match_policyENS1_13action_policyEEEEENS1_5nil_tEED2Ev
_ZN5boost6spirit7classic4impl15concrete_parserINS1_10eol_parserENS1_7scannerIPKcNS1_16scanner_policiesINS1_16iteration_policyENS1_12match_policyENS1_13action_policyEEEEENS1_5nil_tEED5Ev
_ZN5boost6spirit7classic4impl15concrete_parserINS1_11alternativeINS1_12inhibit_caseINS1_6strlitIPKcEEEESA_EENS1_7scannerIS8_NS1_16scanner_policiesINS1_16iteration_policyENS1_12match_policyENS1_13action_policyEEEEENS1_5nil_tEED0Ev
_ZN5boost6spirit7classic4impl15concrete_parserINS1_11alternativeINS1_12inhibit_caseINS1_6strlitIPKcEEEESA_EENS1_7scannerIS8_NS1_16scanner_policiesINS1_16iteration_policyENS1_12match_policyENS1_13action_policyEEEEENS1_5nil_tEED1Ev
_ZN5boost6spirit7classic4impl15concrete_parserINS1_11alternativeINS1_12inhibit_caseINS1_6strlitIPKcEEEESA_EENS1_7scannerIS8_NS1_16scanner_policiesINS1_16iteration_policyENS1_12match_policyENS1_13action_policyEEEEENS1_5nil_tEED2Ev
_ZN5boost6spirit7classic4impl15concrete_parserINS1_11alternativeINS1_12inhibit_caseINS1_6strlitIPKcEEEESA_EENS1_7scannerIS8_NS1_16scanner_policiesINS1_16iteration_policyENS1_12match_policyENS1_13action_policyEEEEENS1_5nil_tEED5Ev
_ZN5boost6spirit7classic4impl15concrete_parserINS1_11alternativeINS1_4ruleINS1_5nil_tES6_S6_EENS1_8sequenceINS8_INS1_8optionalIS7_EESA_EES7_EEEENS1_7scannerIPKcNS1_16scanner_policiesINS1_16iteration_policyENS1_12match_policyENS1_13action_policyEEEEES6_ED0Ev
_ZN5boost6spirit7classic4impl15concrete_parserINS1_11alternativeINS1_4ruleINS1_5nil_tES6_S6_EENS1_8sequenceINS8_INS1_8optionalIS7_EESA_EES7_EEEENS1_7scannerIPKcNS1_16scanner_policiesINS1_16iteration_policyENS1_12match_policyENS1_13action_policyEEEEES6_ED1Ev
_ZN5boost6spirit7classic4impl15concrete_parserINS1_11alternativeINS1_4ruleINS1_5nil_tES6_S6_EENS1_8sequenceINS8_INS1_8optionalIS7_EESA_EES7_EEEENS1_7scannerIPKcNS1_16scanner_policiesINS1_16iteration_policyENS1_12match_policyENS1_13action_policyEEEEES6_ED2Ev
_ZN5boost6spirit7classic4impl15concrete_parserINS1_11alternativeINS1_4ruleINS1_5nil_tES6_S6_EENS1_8sequenceINS8_INS1_8optionalIS7_EESA_EES7_EEEENS1_7scannerIPKcNS1_16scanner_policiesINS1_16iteration_policyENS1_12match_policyENS1_13action_policyEEEEES6_ED5Ev
_ZN5boost6spirit7classic4impl15concrete_parserINS1_11alternativeINS1_6strlitIPKcEENS1_4ruleINS1_5nil_tESA_SA_EEEENS1_7scannerIS7_NS1_16scanner_policiesINS1_16iteration_policyENS1_12match_policyENS1_13action_policyEEEEESA_ED0Ev
_ZN5boost6spirit7classic4impl15concrete_parserINS1_11alternativeINS1_6strlitIPKcEENS1_4ruleINS1_5nil_tESA_SA_EEEENS1_7scannerIS7_NS1_16scanner_policiesINS1_16iteration_policyENS1_12match_policyENS1_13action_policyEEEEESA_ED1Ev
_ZN5boost6spirit7classic4impl15concrete_parserINS1_11alternativeINS1_6strlitIPKcEENS1_4ruleINS1_5nil_tESA_SA_EEEENS1_7scannerIS7_NS1_16scanner_policiesINS1_16iteration_policyENS1_12match_policyENS1_13action_policyEEEEESA_ED2Ev
_ZN5boost6spirit7classic4impl15concrete_parserINS1_11alternativeINS1_6strlitIPKcEENS1_4ruleINS1_5nil_tESA_SA_EEEENS1_7scannerIS7_NS1_16scanner_policiesINS1_16iteration_policyENS1_12match_policyENS1_13action_policyEEEEESA_ED5Ev
_ZN5boost6spirit7classic4impl15concrete_parserINS1_11alternativeINS4_INS1_13confix_parserINS1_6strlitIPKcEENS1_11kleene_starINS1_14anychar_parserEEES9_NS1_21unary_parser_categoryENS1_10non_nestedENS1_9is_lexemeEEENS5_IS9_SC_NS4_INS1_10eol_parserENS1_10end_parserEEESD_SE_SF_EEEESK_EENS1_7scannerIS8_NS1_16scanner_policiesINS1_16iteration_policyENS1_12match_policyENS1_13action_policyEEEEENS1_5nil_tEED0Ev
_ZN5boost6spirit7classic4impl15concrete_parserINS1_11alternativeINS4_INS1_13confix_parserINS1_6strlitIPKcEENS1_11kleene_starINS1_14anychar_parserEEES9_NS1_21unary_parser_categoryENS1_10non_nestedENS1_9is_lexemeEEENS5_IS9_SC_NS4_INS1_10eol_parserENS1_10end_parserEEESD_SE_SF_EEEESK_EENS1_7scannerIS8_NS1_16scanner_policiesINS1_16iteration_policyENS1_12match_policyENS1_13action_policyEEEEENS1_5nil_tEED1Ev
_ZN5boost6spirit7classic4impl15concrete_parserINS1_11alternativeINS4_INS1_13confix_parserINS1_6strlitIPKcEENS1_11kleene_starINS1_14anychar_parserEEES9_NS1_21unary_parser_categoryENS1_10non_nestedENS1_9is_lexemeEEENS5_IS9_SC_NS4_INS1_10eol_parserENS1_10end_parserEEESD_SE_SF_EEEESK_EENS1_7scannerIS8_NS1_16scanner_policiesINS1_16iteration_policyENS1_12match_policyENS1_13action_policyEEEEENS1_5nil_tEED2Ev
_ZN5boost6spirit7classic4impl15concrete_parserINS1_11alternativeINS4_INS1_13confix_parserINS1_6strlitIPKcEENS1_11kleene_starINS1_14anychar_parserEEES9_NS1_21unary_parser_categoryENS1_10non_nestedENS1_9is_lexemeEEENS5_IS9_SC_NS4_INS1_10eol_parserENS1_10end_parserEEESD_SE_SF_EEEESK_EENS1_7scannerIS8_NS1_16scanner_policiesINS1_16iteration_policyENS1_12match_policyENS1_13action_policyEEEEENS1_5nil_tEED5Ev
_ZN5boost6spirit7classic4impl15concrete_parserINS1_11alternativeINS4_INS1_4ruleINS1_5nil_tES6_S6_EENS1_6actionIS7_NS_3_bi6bind_tIvNS_4_mfi3mf2IvN4rcss4conf6ParserEPKcSH_EENS9_5list3INS9_5valueIPSF_EENS_3argILi1EEENSN_ILi2EEEEEEEEEEESS_EENS1_7scannerISH_NS1_16scanner_policiesINS1_16iteration_policyENS1_12match_policyENS1_13action_policyEEEEES6_ED0Ev
_ZN5boost6spirit7classic4impl15concrete_parserINS1_11alternativeINS4_INS1_4ruleINS1_5nil_tES6_S6_EENS1_6actionIS7_NS_3_bi6bind_tIvNS_4_mfi3mf2IvN4rcss4conf6ParserEPKcSH_EENS9_5list3INS9_5valueIPSF_EENS_3argILi1EEENSN_ILi2EEEEEEEEEEESS_EENS1_7scannerISH_NS1_16scanner_policiesINS1_16iteration_policyENS1_12match_policyENS1_13action_policyEEEEES6_ED1Ev
_ZN5boost6spirit7classic4impl15concrete_parserINS1_11alternativeINS4_INS1_4ruleINS1_5nil_tES6_S6_EENS1_6actionIS7_NS_3_bi6bind_tIvNS_4_mfi3mf2IvN4rcss4conf6ParserEPKcSH_EENS9_5list3INS9_5valueIPSF_EENS_3argILi1EEENSN_ILi2EEEEEEEEEEESS_EENS1_7scannerISH_NS1_16scanner_policiesINS1_16iteration_policyENS1_12match_policyENS1_13action_policyEEEEES6_ED2Ev
_ZN5boost6spirit7classic4impl15concrete_parserINS1_11alternativeINS4_INS1_4ruleINS1_5nil_tES6_S6_EENS1_6actionIS7_NS_3_bi6bind_tIvNS_4_mfi3mf2IvN4rcss4conf6ParserEPKcSH_EENS9_5list3INS9_5valueIPSF_EENS_3argILi1EEENSN_ILi2EEEEEEEEEEESS_EENS1_7scannerISH_NS1_16scanner_policiesINS1_16iteration_policyENS1_12match_policyENS1_13action_policyEEEEES6_ED5Ev
_ZN5boost6spirit7classic4impl15concrete_parserINS1_11alternativeINS4_INS1_4ruleINS1_5nil_tES6_S6_EES7_EES7_EENS1_7scannerIPKcNS1_16scanner_policiesINS1_16iteration_policyENS1_12match_policyENS1_13action_policyEEEEES6_ED0Ev
_ZN5boost6spirit7classic4impl15concrete_parserINS1_11alternativeINS4_INS1_4ruleINS1_5nil_tES6_S6_EES7_EES7_EENS1_7scannerIPKcNS1_16scanner_policiesINS1_16iteration_policyENS1_12match_policyENS1_13action_policyEEEEES6_ED1Ev
_ZN5boost6spirit7classic4impl15concrete_parserINS1_11alternativeINS4_INS1_4ruleINS1_5nil_tES6_S6_EES7_EES7_EENS1_7scannerIPKcNS1_16scanner_policiesINS1_16iteration_policyENS1_12match_policyENS1_13action_policyEEEEES6_ED2Ev
_ZN5boost6spirit7classic4impl15concrete_parserINS1_11alternativeINS4_INS1_4ruleINS1_5nil_tES6_S6_EES7_EES7_EENS1_7scannerIPKcNS1_16scanner_policiesINS1_16iteration_policyENS1_12match_policyENS1_13action_policyEEEEES6_ED5Ev
_ZN5boost6spirit7classic4impl15concrete_parserINS1_11alternativeINS4_INS4_INS1_6actionINS1_12inhibit_caseINS1_6strlitIPKcEEEENS_3_bi6bind_tIvNS_4_mfi3mf0IvN4rcss4conf6ParserEEENSC_5list1INSC_5valueIPSI_EEEEEEEENS5_INS1_8sequenceINSR_INS1_4ruleINS1_5nil_tEST_ST_EESU_EESB_EESP_EEEESU_EESU_EENS1_7scannerIS9_NS1_16scanner_policiesINS1_16iteration_policyENS1_12match_policyENS1_13action_policyEEEEEST_ED0Ev
_ZN5boost6spirit7classic4impl15concrete_parserINS1_11alternativeINS4_INS4_INS1_6actionINS1_12inhibit_caseINS1_6strlitIPKcEEEENS_3_bi6bind_tIvNS_4_mfi3mf0IvN4rcss4conf6ParserEEENSC_5list1INSC_5valueIPSI_EEEEEEEENS5_INS1_8sequenceINSR_INS1_4ruleINS1_5nil_tEST_ST_EESU_EESB_EESP_EEEESU_EESU_EENS1_7scannerIS9_NS1_16scanner_policiesINS1_16iteration_policyENS1_12match_policyENS1_13action_policyEEEEEST_ED1Ev
_ZN5boost6spirit7classic4impl15concrete_parserINS1_11alternativeINS4_INS4_INS1_6actionINS1_12inhibit_caseINS1_6strlitIPKcEEEENS_3_bi6bind_tIvNS_4_mfi3mf0IvN4rcss4conf6ParserEEENSC_5list1INSC_5valueIPSI_EEEEEEEENS5_INS1_8sequenceINSR_INS1_4ruleINS1_5nil_tEST_ST_EESU_EESB_EESP_EEEESU_EESU_EENS1_7scannerIS9_NS1_16scanner_policiesINS1_16iteration_policyENS1_12match_policyENS1_13action_policyEEEEEST_ED2Ev
_ZN5boost6spirit7classic4impl15concrete_parserINS1_11alternativeINS4_INS4_INS1_6actionINS1_12inhibit_caseINS1_6strlitIPKcEEEENS_3_bi6bind_tIvNS_4_mfi3mf0IvN4rcss4conf6ParserEEENSC_5list1INSC_5valueIPSI_EEEEEEEENS5_INS1_8sequenceINSR_INS1_4ruleINS1_5nil_tEST_ST_EESU_EESB_EESP_EEEESU_EESU_EENS1_7scannerIS9_NS1_16scanner_policiesINS1_16iteration_policyENS1_12match_policyENS1_13action_policyEEEEEST_ED5Ev
_ZN5boost6spirit7classic4impl15concrete_parserINS1_11kleene_starINS1_4ruleINS1_5nil_tES6_S6_EEEENS1_7scannerIPKcNS1_16scanner_policiesINS1_16iteration_policyENS1_12match_policyENS1_13action_policyEEEEES6_ED0Ev
_ZN5boost6spirit7classic4impl15concrete_parserINS1_11kleene_starINS1_4ruleINS1_5nil_tES6_S6_EEEENS1_7scannerIPKcNS1_16scanner_policiesINS1_16iteration_policyENS1_12match_policyENS1_13action_policyEEEEES6_ED1Ev
_ZN5boost6spirit7classic4impl15concrete_parserINS1_11kleene_starINS1_4ruleINS1_5nil_tES6_S6_EEEENS1_7scannerIPKcNS1_16scanner_policiesINS1_16iteration_policyENS1_12match_policyENS1_13action_policyEEEEES6_ED2Ev
_ZN5boost6spirit7classic4impl15concrete_parserINS1_11kleene_starINS1_4ruleINS1_5nil_tES6_S6_EEEENS1_7scannerIPKcNS1_16scanner_policiesINS1_16iteration_policyENS1_12match_policyENS1_13action_policyEEEEES6_ED5Ev
_ZN5boost6spirit7classic4impl15concrete_parserINS1_15fallback_parserIN4rcss4conf6Parser6ErrorsENS1_11kleene_starINS1_4ruleINS1_5nil_tESB_SB_EEEENS_3_bi6bind_tINS1_12error_statusISB_EEPFSH_PKS7_RKNS1_7scannerIPKcNS1_16scanner_policiesINS1_16iteration_policyENS1_12match_policyENS1_13action_policyEEEEERKNS1_12parser_errorIS8_SM_EEENSE_5list3INSE_5valueIPS7_EENS_3argILi1EEENS15_ILi2EEEEEEEEESS_SB_ED0Ev
_ZN5boost6spirit7classic4impl15concrete_parserINS1_15fallback_parserIN4rcss4conf6Parser6ErrorsENS1_11kleene_starINS1_4ruleINS1_5nil_tESB_SB_EEEENS_3_bi6bind_tINS1_12error_statusISB_EEPFSH_PKS7_RKNS1_7scannerIPKcNS1_16scanner_policiesINS1_16iteration_policyENS1_12match_policyENS1_13action_policyEEEEERKNS1_12parser_errorIS8_SM_EEENSE_5list3INSE_5valueIPS7_EENS_3argILi1EEENS15_ILi2EEEEEEEEESS_SB_ED1Ev
_ZN5boost6spirit7classic4impl15concrete_parserINS1_15fallback_parserIN4rcss4conf6Parser6ErrorsENS1_11kleene_starINS1_4ruleINS1_5nil_tESB_SB_EEEENS_3_bi6bind_tINS1_12error_statusISB_EEPFSH_PKS7_RKNS1_7scannerIPKcNS1_16scanner_policiesINS1_16iteration_policyENS1_12match_policyENS1_13action_policyEEEEERKNS1_12parser_errorIS8_SM_EEENSE_5list3INSE_5valueIPS7_EENS_3argILi1EEENS15_ILi2EEEEEEEEESS_SB_ED2Ev
_ZN5boost6spirit7classic4impl15concrete_parserINS1_15fallback_parserIN4rcss4conf6Parser6ErrorsENS1_11kleene_starINS1_4ruleINS1_5nil_tESB_SB_EEEENS_3_bi6bind_tINS1_12error_statusISB_EEPFSH_PKS7_RKNS1_7scannerIPKcNS1_16scanner_policiesINS1_16iteration_policyENS1_12match_policyENS1_13action_policyEEEEERKNS1_12parser_errorIS8_SM_EEENSE_5list3INSE_5valueIPS7_EENS_3argILi1EEENS15_ILi2EEEEEEEEESS_SB_ED5Ev
_ZN5boost6spirit7classic4impl15concrete_parserINS1_19negated_char_parserINS1_5chlitIcEEEENS1_7scannerIPKcNS1_16scanner_policiesINS1_16iteration_policyENS1_12match_policyENS1_13action_policyEEEEENS1_5nil_tEED0Ev
_ZN5boost6spirit7classic4impl15concrete_parserINS1_19negated_char_parserINS1_5chlitIcEEEENS1_7scannerIPKcNS1_16scanner_policiesINS1_16iteration_policyENS1_12match_policyENS1_13action_policyEEEEENS1_5nil_tEED1Ev
_ZN5boost6spirit7classic4impl15concrete_parserINS1_19negated_char_parserINS1_5chlitIcEEEENS1_7scannerIPKcNS1_16scanner_policiesINS1_16iteration_policyENS1_12match_policyENS1_13action_policyEEEEENS1_5nil_tEED2Ev
_ZN5boost6spirit7classic4impl15concrete_parserINS1_19negated_char_parserINS1_5chlitIcEEEENS1_7scannerIPKcNS1_16scanner_policiesINS1_16iteration_policyENS1_12match_policyENS1_13action_policyEEEEENS1_5nil_tEED5Ev
_ZN5boost6spirit7classic4impl15concrete_parserINS1_5chlitIcEENS1_7scannerIPKcNS1_16scanner_policiesINS1_16iteration_policyENS1_12match_policyENS1_13action_policyEEEEENS1_5nil_tEED0Ev
_ZN5boost6spirit7classic4impl15concrete_parserINS1_5chlitIcEENS1_7scannerIPKcNS1_16scanner_policiesINS1_16iteration_policyENS1_12match_policyENS1_13action_policyEEEEENS1_5nil_tEED1Ev
_ZN5boost6spirit7classic4impl15concrete_parserINS1_5chlitIcEENS1_7scannerIPKcNS1_16scanner_policiesINS1_16iteration_policyENS1_12match_policyENS1_13action_policyEEEEENS1_5nil_tEED2Ev
_ZN5boost6spirit7classic4impl15concrete_parserINS1_5chlitIcEENS1_7scannerIPKcNS1_16scanner_policiesINS1_16iteration_policyENS1_12match_policyENS1_13action_policyEEEEENS1_5nil_tEED5Ev
_ZN5boost6spirit7classic4impl15concrete_parserINS1_6strlitIPKcEENS1_7scannerIS6_NS1_16scanner_policiesINS1_16iteration_policyENS1_12match_policyENS1_13action_policyEEEEENS1_5nil_tEED0Ev
_ZN5boost6spirit7classic4impl15concrete_parserINS1_6strlitIPKcEENS1_7scannerIS6_NS1_16scanner_policiesINS1_16iteration_policyENS1_12match_policyENS1_13action_policyEEEEENS1_5nil_tEED1Ev
_ZN5boost6spirit7classic4impl15concrete_parserINS1_6strlitIPKcEENS1_7scannerIS6_NS1_16scanner_policiesINS1_16iteration_policyENS1_12match_policyENS1_13action_policyEEEEENS1_5nil_tEED2Ev
_ZN5boost6spirit7classic4impl15concrete_parserINS1_6strlitIPKcEENS1_7scannerIS6_NS1_16scanner_policiesINS1_16iteration_policyENS1_12match_policyENS1_13action_policyEEEEENS1_5nil_tEED5Ev
_ZN5boost6spirit7classic4impl15concrete_parserINS1_8positiveINS1_5chsetIcEEEENS1_7scannerIPKcNS1_16scanner_policiesINS1_16iteration_policyENS1_12match_policyENS1_13action_policyEEEEENS1_5nil_tEED0Ev
_ZN5boost6spirit7classic4impl15concrete_parserINS1_8positiveINS1_5chsetIcEEEENS1_7scannerIPKcNS1_16scanner_policiesINS1_16iteration_policyENS1_12match_policyENS1_13action_policyEEEEENS1_5nil_tEED1Ev
_ZN5boost6spirit7classic4impl15concrete_parserINS1_8positiveINS1_5chsetIcEEEENS1_7scannerIPKcNS1_16scanner_policiesINS1_16iteration_policyENS1_12match_policyENS1_13action_policyEEEEENS1_5nil_tEED2Ev
_ZN5boost6spirit7classic4impl15concrete_parserINS1_8positiveINS1_5chsetIcEEEENS1_7scannerIPKcNS1_16scanner_policiesINS1_16iteration_policyENS1_12match_policyENS1_13action_policyEEEEENS1_5nil_tEED5Ev
_ZN5boost6spirit7classic4impl15concrete_parserINS1_8sequenceINS1_6actionINS1_10differenceINS1_4ruleINS1_5nil_tES8_S8_EES9_EENS_3_bi6bind_tIbNS_4_mfi3mf2IbN4rcss4conf6ParserEPKcSJ_EENSB_5list3INSB_5valueIPSH_EENS_3argILi1EEENSP_ILi2EEEEEEEEENS1_11kleene_starINS4_IS9_NS5_INS6_IS9_NS1_12inhibit_caseINS1_6strlitISJ_EEEEEENSC_IvNSE_IvSH_SJ_SJ_EESS_EEEEEEEEEENS1_7scannerISJ_NS1_16scanner_policiesINS1_16iteration_policyENS1_12match_policyENS1_13action_policyEEEEES8_ED0Ev
_ZN5boost6spirit7classic4impl15concrete_parserINS1_8sequenceINS1_6actionINS1_10differenceINS1_4ruleINS1_5nil_tES8_S8_EES9_EENS_3_bi6bind_tIbNS_4_mfi3mf2IbN4rcss4conf6ParserEPKcSJ_EENSB_5list3INSB_5valueIPSH_EENS_3argILi1EEENSP_ILi2EEEEEEEEENS1_11kleene_starINS4_IS9_NS5_INS6_IS9_NS1_12inhibit_caseINS1_6strlitISJ_EEEEEENSC_IvNSE_IvSH_SJ_SJ_EESS_EEEEEEEEEENS1_7scannerISJ_NS1_16scanner_policiesINS1_16iteration_policyENS1_12match_policyENS1_13action_policyEEEEES8_ED1Ev
_ZN5boost6spirit7classic4impl15concrete_parserINS1_8sequenceINS1_6actionINS1_10differenceINS1_4ruleINS1_5nil_tES8_S8_EES9_EENS_3_bi6bind_tIbNS_4_mfi3mf2IbN4rcss4conf6ParserEPKcSJ_EENSB_5list3INSB_5valueIPSH_EENS_3argILi1EEENSP_ILi2EEEEEEEEENS1_11kleene_starINS4_IS9_NS5_INS6_IS9_NS1_12inhibit_caseINS1_6strlitISJ_EEEEEENSC_IvNSE_IvSH_SJ_SJ_EESS_EEEEEEEEEENS1_7scannerISJ_NS1_16scanner_policiesINS1_16iteration_policyENS1_12match_policyENS1_13action_policyEEEEES8_ED2Ev
_ZN5boost6spirit7classic4impl15concrete_parserINS1_8sequenceINS1_6actionINS1_10differenceINS1_4ruleINS1_5nil_tES8_S8_EES9_EENS_3_bi6bind_tIbNS_4_mfi3mf2IbN4rcss4conf6ParserEPKcSJ_EENSB_5list3INSB_5valueIPSH_EENS_3argILi1EEENSP_ILi2EEEEEEEEENS1_11kleene_starINS4_IS9_NS5_INS6_IS9_NS1_12inhibit_caseINS1_6strlitISJ_EEEEEENSC_IvNSE_IvSH_SJ_SJ_EESS_EEEEEEEEEENS1_7scannerISJ_NS1_16scanner_policiesINS1_16iteration_policyENS1_12match_policyENS1_13action_policyEEEEES8_ED5Ev
_ZN5boost6spirit7classic4impl15concrete_parserINS1_8sequenceINS1_8positiveINS1_5chsetIcEEEENS1_11kleene_starIS7_EEEENS1_7scannerIPKcNS1_16scanner_policiesINS1_16iteration_policyENS1_12match_policyENS1_13action_policyEEEEENS1_5nil_tEED0Ev
_ZN5boost6spirit7classic4impl15concrete_parserINS1_8sequenceINS1_8positiveINS1_5chsetIcEEEENS1_11kleene_starIS7_EEEENS1_7scannerIPKcNS1_16scanner_policiesINS1_16iteration_policyENS1_12match_policyENS1_13action_policyEEEEENS1_5nil_tEED1Ev
_ZN5boost6spirit7classic4impl15concrete_parserINS1_8sequenceINS1_8positiveINS1_5chsetIcEEEENS1_11kleene_starIS7_EEEENS1_7scannerIPKcNS1_16scanner_policiesINS1_16iteration_policyENS1_12match_policyENS1_13action_policyEEEEENS1_5nil_tEED2Ev
_ZN5boost6spirit7classic4impl15concrete_parserINS1_8sequenceINS1_8positiveINS1_5chsetIcEEEENS1_11kleene_starIS7_EEEENS1_7scannerIPKcNS1_16scanner_policiesINS1_16iteration_policyENS1_12match_policyENS1_13action_policyEEEEENS1_5nil_tEED5Ev
_ZN5boost6spirit7classic4impl15concrete_parserINS1_8sequenceINS4_INS1_5chlitIcEENS1_11kleene_starINS1_4ruleINS1_5nil_tES9_S9_EEEEEES6_EENS1_7scannerIPKcNS1_16scanner_policiesINS1_16iteration_policyENS1_12match_policyENS1_13action_policyEEEEES9_ED0Ev
_ZN5boost6spirit7classic4impl15concrete_parserINS1_8sequenceINS4_INS1_5chlitIcEENS1_11kleene_starINS1_4ruleINS1_5nil_tES9_S9_EEEEEES6_EENS1_7scannerIPKcNS1_16scanner_policiesINS1_16iteration_policyENS1_12match_policyENS1_13action_policyEEEEES9_ED1Ev
_ZN5boost6spirit7classic4impl15concrete_parserINS1_8sequenceINS4_INS1_5chlitIcEENS1_11kleene_starINS1_4ruleINS1_5nil_tES9_S9_EEEEEES6_EENS1_7scannerIPKcNS1_16scanner_policiesINS1_16iteration_policyENS1_12match_policyENS1_13action_policyEEEEES9_ED2Ev
_ZN5boost6spirit7classic4impl15concrete_parserINS1_8sequenceINS4_INS1_5chlitIcEENS1_11kleene_starINS1_4ruleINS1_5nil_tES9_S9_EEEEEES6_EENS1_7scannerIPKcNS1_16scanner_policiesINS1_16iteration_policyENS1_12match_policyENS1_13action_policyEEEEES9_ED5Ev
_ZN5boost6spirit7classic4impl15concrete_parserINS1_8sequenceINS4_INS1_6actionINS1_10differenceINS1_4ruleINS1_5nil_tES8_S8_EES9_EENS_3_bi6bind_tIbNS_4_mfi3mf2IbN4rcss4conf6ParserEPKcSJ_EENSB_5list3INSB_5valueIPSH_EENS_3argILi1EEENSP_ILi2EEEEEEEEENS4_INS1_16assertive_parserINSH_6ErrorsES9_EENS5_INS6_IS9_NS1_12inhibit_caseINS1_6strlitISJ_EEEEEENSC_IvNSE_IvSH_SJ_SJ_EESS_EEEEEEEENS1_11kleene_starINS4_IS9_S15_EEEEEENS1_7scannerISJ_NS1_16scanner_policiesINS1_16iteration_policyENS1_12match_policyENS1_13action_policyEEEEES8_ED0Ev
_ZN5boost6spirit7classic4impl15concrete_parserINS1_8sequenceINS4_INS1_6actionINS1_10differenceINS1_4ruleINS1_5nil_tES8_S8_EES9_EENS_3_bi6bind_tIbNS_4_mfi3mf2IbN4rcss4conf6ParserEPKcSJ_EENSB_5list3INSB_5valueIPSH_EENS_3argILi1EEENSP_ILi2EEEEEEEEENS4_INS1_16assertive_parserINSH_6ErrorsES9_EENS5_INS6_IS9_NS1_12inhibit_caseINS1_6strlitISJ_EEEEEENSC_IvNSE_IvSH_SJ_SJ_EESS_EEEEEEEENS1_11kleene_starINS4_IS9_S15_EEEEEENS1_7scannerISJ_NS1_16scanner_policiesINS1_16iteration_policyENS1_12match_policyENS1_13action_policyEEEEES8_ED1Ev
_ZN5boost6spirit7classic4impl15concrete_parserINS1_8sequenceINS4_INS1_6actionINS1_10differenceINS1_4ruleINS1_5nil_tES8_S8_EES9_EENS_3_bi6bind_tIbNS_4_mfi3mf2IbN4rcss4conf6ParserEPKcSJ_EENSB_5list3INSB_5valueIPSH_EENS_3argILi1EEENSP_ILi2EEEEEEEEENS4_INS1_16assertive_parserINSH_6ErrorsES9_EENS5_INS6_IS9_NS1_12inhibit_caseINS1_6strlitISJ_EEEEEENSC_IvNSE_IvSH_SJ_SJ_EESS_EEEEEEEENS1_11kleene_starINS4_IS9_S15_EEEEEENS1_7scannerISJ_NS1_16scanner_policiesINS1_16iteration_policyENS1_12match_policyENS1_13action_policyEEEEES8_ED2Ev
_ZN5boost6spirit7classic4impl15concrete_parserINS1_8sequenceINS4_INS1_6actionINS1_10differenceINS1_4ruleINS1_5nil_tES8_S8_EES9_EENS_3_bi6bind_tIbNS_4_mfi3mf2IbN4rcss4conf6ParserEPKcSJ_EENSB_5list3INSB_5valueIPSH_EENS_3argILi1EEENSP_ILi2EEEEEEEEENS4_INS1_16assertive_parserINSH_6ErrorsES9_EENS5_INS6_IS9_NS1_12inhibit_caseINS1_6strlitISJ_EEEEEENSC_IvNSE_IvSH_SJ_SJ_EESS_EEEEEEEENS1_11kleene_starINS4_IS9_S15_EEEEEENS1_7scannerISJ_NS1_16scanner_policiesINS1_16iteration_policyENS1_12match_policyENS1_13action_policyEEEEES8_ED5Ev
_ZN5boost6spirit7classic4impl15concrete_parserINS1_8sequenceINS4_INS4_INS4_INS1_12inhibit_caseINS1_6strlitIPKcEEEENS1_4ruleINS1_5nil_tESC_SC_EEEENS1_16assertive_parserIN4rcss4conf6Parser6ErrorsESD_EEEESD_EENSF_ISJ_NS1_6actionISD_NS_3_bi6bind_tIbNS_4_mfi3mf2IbSI_S8_S8_EENSO_5list3INSO_5valueIPSI_EENS_3argILi1EEENSX_ILi2EEEEEEEEEEEEENS1_7scannerIS8_NS1_16scanner_policiesINS1_16iteration_policyENS1_12match_policyENS1_13action_policyEEEEESC_ED0Ev
_ZN5boost6spirit7classic4impl15concrete_parserINS1_8sequenceINS4_INS4_INS4_INS1_12inhibit_caseINS1_6strlitIPKcEEEENS1_4ruleINS1_5nil_tESC_SC_EEEENS1_16assertive_parserIN4rcss4conf6Parser6ErrorsESD_EEEESD_EENSF_ISJ_NS1_6actionISD_NS_3_bi6bind_tIbNS_4_mfi3mf2IbSI_S8_S8_EENSO_5list3INSO_5valueIPSI_EENS_3argILi1EEENSX_ILi2EEEEEEEEEEEEENS1_7scannerIS8_NS1_16scanner_policiesINS1_16iteration_policyENS1_12match_policyENS1_13action_policyEEEEESC_ED1Ev
_ZN5boost6spirit7classic4impl15concrete_parserINS1_8sequenceINS4_INS4_INS4_INS1_12inhibit_caseINS1_6strlitIPKcEEEENS1_4ruleINS1_5nil_tESC_SC_EEEENS1_16assertive_parserIN4rcss4conf6Parser6ErrorsESD_EEEESD_EENSF_ISJ_NS1_6actionISD_NS_3_bi6bind_tIbNS_4_mfi3mf2IbSI_S8_S8_EENSO_5list3INSO_5valueIPSI_EENS_3argILi1EEENSX_ILi2EEEEEEEEEEEEENS1_7scannerIS8_NS1_16scanner_policiesINS1_16iteration_policyENS1_12match_policyENS1_13action_policyEEEEESC_ED2Ev
_ZN5boost6spirit7classic4impl15concrete_parserINS1_8sequenceINS4_INS4_INS4_INS1_12inhibit_caseINS1_6strlitIPKcEEEENS1_4ruleINS1_5nil_tESC_SC_EEEENS1_16assertive_parserIN4rcss4conf6Parser6ErrorsESD_EEEESD_EENSF_ISJ_NS1_6actionISD_NS_3_bi6bind_tIbNS_4_mfi3mf2IbSI_S8_S8_EENSO_5list3INSO_5valueIPSI_EENS_3argILi1EEENSX_ILi2EEEEEEEEEEEEENS1_7scannerIS8_NS1_16scanner_policiesINS1_16iteration_policyENS1_12match_policyENS1_13action_policyEEEEESC_ED5Ev
_ZN5boost6spirit7classic4impl15concrete_parserINS1_8sequenceINS4_INS4_INS4_INS1_4ruleINS1_5nil_tES6_S6_EES7_EENS1_16assertive_parserIN4rcss4conf6Parser6ErrorsES7_EEEES7_EENS9_ISD_NS1_11alternativeINSH_INSH_INSH_INS1_6actionIS7_NS_3_bi6bind_tIbNS_4_mfi3mf1IbSC_bEENSJ_5list2INSJ_5valueIPSC_EENSP_IbEEEEEEEESV_EENSI_INS1_11real_parserIdNS1_27strict_real_parser_policiesIdEEEENSK_IbNSM_IbSC_dEENSO_ISR_NS_3argILi1EEEEEEEEEEENSI_INS1_10int_parserIiLi10ELj1ELin1EEENSK_IbNSM_IbSC_iEES14_EEEEEENSI_IS7_NSK_IbNSL_3mf2IbSC_PKcS1G_EENSJ_5list3ISR_S13_NS12_ILi2EEEEEEEEEEEEEEENS1_7scannerIS1G_NS1_16scanner_policiesINS1_16iteration_policyENS1_12match_policyENS1_13action_policyEEEEES6_ED0Ev
_ZN5boost6spirit7classic4impl15concrete_parserINS1_8sequenceINS4_INS4_INS4_INS1_4ruleINS1_5nil_tES6_S6_EES7_EENS1_16assertive_parserIN4rcss4conf6Parser6ErrorsES7_EEEES7_EENS9_ISD_NS1_11alternativeINSH_INSH_INSH_INS1_6actionIS7_NS_3_bi6bind_tIbNS_4_mfi3mf1IbSC_bEENSJ_5list2INSJ_5valueIPSC_EENSP_IbEEEEEEEESV_EENSI_INS1_11real_parserIdNS1_27strict_real_parser_policiesIdEEEENSK_IbNSM_IbSC_dEENSO_ISR_NS_3argILi1EEEEEEEEEEENSI_INS1_10int_parserIiLi10ELj1ELin1EEENSK_IbNSM_IbSC_iEES14_EEEEEENSI_IS7_NSK_IbNSL_3mf2IbSC_PKcS1G_EENSJ_5list3ISR_S13_NS12_ILi2EEEEEEEEEEEEEEENS1_7scannerIS1G_NS1_16scanner_policiesINS1_16iteration_policyENS1_12match_policyENS1_13action_policyEEEEES6_ED1Ev
_ZN5boost6spirit7classic4impl15concrete_parserINS1_8sequenceINS4_INS4_INS4_INS1_4ruleINS1_5nil_tES6_S6_EES7_EENS1_16assertive_parserIN4rcss4conf6Parser6ErrorsES7_EEEES7_EENS9_ISD_NS1_11alternativeINSH_INSH_INSH_INS1_6actionIS7_NS_3_bi6bind_tIbNS_4_mfi3mf1IbSC_bEENSJ_5list2INSJ_5valueIPSC_EENSP_IbEEEEEEEESV_EENSI_INS1_11real_parserIdNS1_27strict_real_parser_policiesIdEEEENSK_IbNSM_IbSC_dEENSO_ISR_NS_3argILi1EEEEEEEEEEENSI_INS1_10int_parserIiLi10ELj1ELin1EEENSK_IbNSM_IbSC_iEES14_EEEEEENSI_IS7_NSK_IbNSL_3mf2IbSC_PKcS1G_EENSJ_5list3ISR_S13_NS12_ILi2EEEEEEEEEEEEEEENS1_7scannerIS1G_NS1_16scanner_policiesINS1_16iteration_policyENS1_12match_policyENS1_13action_policyEEEEES6_ED2Ev
_ZN5boost6spirit7classic4impl15concrete_parserINS1_8sequenceINS4_INS4_INS4_INS1_4ruleINS1_5nil_tES6_S6_EES7_EENS1_16assertive_parserIN4rcss4conf6Parser6ErrorsES7_EEEES7_EENS9_ISD_NS1_11alternativeINSH_INSH_INSH_INS1_6actionIS7_NS_3_bi6bind_tIbNS_4_mfi3mf1IbSC_bEENSJ_5list2INSJ_5valueIPSC_EENSP_IbEEEEEEEESV_EENSI_INS1_11real_parserIdNS1_27strict_real_parser_policiesIdEEEENSK_IbNSM_IbSC_dEENSO_ISR_NS_3argILi1EEEEEEEEEEENSI_INS1_10int_parserIiLi10ELj1ELin1EEENSK_IbNSM_IbSC_iEES14_EEEEEENSI_IS7_NSK_IbNSL_3mf2IbSC_PKcS1G_EENSJ_5list3ISR_S13_NS12_ILi2EEEEEEEEEEEEEEENS1_7scannerIS1G_NS1_16scanner_policiesINS1_16iteration_policyENS1_12match_policyENS1_13action_policyEEEEES6_ED5Ev
_ZN5boost6spirit7classic4impl16string_as_parser7convertEPKc
_ZN5boost6spirit7classic4impl21fallback_parser_parseINS1_5matchINS1_5nil_tEEENS1_15fallback_parserIN4rcss4conf6Parser6ErrorsENS1_11kleene_starINS1_4ruleIS5_S5_S5_EEEENS_3_bi6bind_tINS1_12error_statusIS5_EEPFSJ_PKSA_RKNS1_7scannerIPKcNS1_16scanner_policiesINS1_16iteration_policyENS1_12match_policyENS1_13action_policyEEEEERKNS1_12parser_errorISB_SO_EEENSG_5list3INSG_5valueIPSA_EENS_3argILi1EEENS17_ILi2EEEEEEEEESU_EET_RKT0_RKT1_
_ZN5boost6spirit7classic4impl25inhibit_case_parser_parseINS1_5matchINS1_5nil_tEEENS1_6strlitIPKcEENS1_7scannerIS9_NS1_16scanner_policiesINS1_16iteration_policyENS1_12match_policyENS1_13action_policyEEEEEEET_RKT0_RKT1_RKSD_.isra.268
_ZN5boost6spirit7classic4ruleINS1_5nil_tES3_S3_EC1INS1_11alternativeINS1_12inhibit_caseINS1_6strlitIPKcEEEESC_EEEERKT_
_ZN5boost6spirit7classic4ruleINS1_5nil_tES3_S3_EC1INS1_11alternativeINS1_6strlitIPKcEES4_EEEERKT_
_ZN5boost6spirit7classic4ruleINS1_5nil_tES3_S3_EC1INS1_19negated_char_parserINS1_5chlitIcEEEEEERKT_
_ZN5boost6spirit7classic4ruleINS1_5nil_tES3_S3_EC1INS1_5chlitIcEEEERKT_
_ZN5boost6spirit7classic4ruleINS1_5nil_tES3_S3_EC1INS1_8sequenceINS6_INS1_5chlitIcEENS1_11kleene_starIS4_EEEES8_EEEERKT_
_ZN5boost6spirit7classic4ruleINS1_5nil_tES3_S3_EC2INS1_11alternativeINS1_12inhibit_caseINS1_6strlitIPKcEEEESC_EEEERKT_
_ZN5boost6spirit7classic4ruleINS1_5nil_tES3_S3_EC2INS1_11alternativeINS1_6strlitIPKcEES4_EEEERKT_
_ZN5boost6spirit7classic4ruleINS1_5nil_tES3_S3_EC2INS1_19negated_char_parserINS1_5chlitIcEEEEEERKT_
_ZN5boost6spirit7classic4ruleINS1_5nil_tES3_S3_EC2INS1_5chlitIcEEEERKT_
_ZN5boost6spirit7classic4ruleINS1_5nil_tES3_S3_EC2INS1_8sequenceINS6_INS1_5chlitIcEENS1_11kleene_starIS4_EEEES8_EEEERKT_
_ZN5boost6spirit7classic4ruleINS1_5nil_tES3_S3_EC5INS1_11alternativeINS1_12inhibit_caseINS1_6strlitIPKcEEEESC_EEEERKT_
_ZN5boost6spirit7classic4ruleINS1_5nil_tES3_S3_EC5INS1_11alternativeINS1_6strlitIPKcEES4_EEEERKT_
_ZN5boost6spirit7classic4ruleINS1_5nil_tES3_S3_EC5INS1_19negated_char_parserINS1_5chlitIcEEEEEERKT_
_ZN5boost6spirit7classic4ruleINS1_5nil_tES3_S3_EC5INS1_5chlitIcEEEERKT_
_ZN5boost6spirit7classic4ruleINS1_5nil_tES3_S3_EC5INS1_8sequenceINS6_INS1_5chlitIcEENS1_11kleene_starIS4_EEEES8_EEEERKT_
_ZN5boost6spirit7classic5chsetIcEC1ERKS3_
_ZN5boost6spirit7classic5chsetIcEC1IcEEPKT_
_ZN5boost6spirit7classic5chsetIcEC2ERKS3_
_ZN5boost6spirit7classic5chsetIcEC2IcEEPKT_
_ZN5boost6spirit7classic5chsetIcEC5ERKS3_
_ZN5boost6spirit7classic5chsetIcEC5IcEEPKT_
_ZN5boost6spirit7classic5matchIcEaSERKS3_
_ZN5boost6spirit7classic5str_pIcEENS1_6strlitIPKT_EES6_
_ZN5boost6spirit7classic6throw_IN4rcss4conf6Parser6ErrorsEPKcEEvT0_T_
_ZN5boost6spirit7classic7utility4impl6detachIcEEvRNS_10shared_ptrINS1_11basic_chsetIT_EEEE
_ZN5boost6spirit7classiccoIcEENS1_5chsetIT_EERKS5_
_ZN5boost6system12system_errorD0Ev
_ZN5boost6system12system_errorD1Ev
_ZN5boost6system12system_errorD2Ev
_ZN5boost6system12system_errorD5Ev
_ZN5boost6system15system_categoryEv
_ZN5boost6system16generic_categoryEv
_ZN5boost7details19compressed_pair_impINS_6spirit7classic8positiveINS3_5chsetIcEEEENS3_11kleene_starIS6_EELi0EEC1ERKSA_
_ZN5boost7details19compressed_pair_impINS_6spirit7classic8positiveINS3_5chsetIcEEEENS3_11kleene_starIS6_EELi0EEC2ERKSA_
_ZN5boost7details19compressed_pair_impINS_6spirit7classic8positiveINS3_5chsetIcEEEENS3_11kleene_starIS6_EELi0EEC5ERKSA_
_ZN5boost7details19compressed_pair_impINS_6spirit7classic8positiveINS3_5chsetIcEEEENS3_11kleene_starIS6_EELi0EED1Ev
_ZN5boost7details19compressed_pair_impINS_6spirit7classic8positiveINS3_5chsetIcEEEENS3_11kleene_starIS6_EELi0EED2Ev
_ZN5boost7details19compressed_pair_impINS_6spirit7classic8positiveINS3_5chsetIcEEEENS3_11kleene_starIS6_EELi0EED5Ev
_ZN5boost9exceptionD0Ev
_ZN5boost9exceptionD1Ev
_ZN5boost9exceptionD2Ev
_ZN5boost9exceptionD5Ev
_ZN9__gnu_cxx13new_allocatorIN4rcss5clang4UNumEE8allocateEmPKv.isra.119
_ZN9__gnu_cxx13new_allocatorIN4rcss5clang4UNumEE8allocateEmPKv.isra.44
_ZNK4rcss3net4Addr10getHostStrB5cxx11Ev
_ZNK4rcss3net4Addr10getPortStrERKNSt7__cxx1112basic_stringIcSt11char_traitsIcESaIcEEE
_ZNK4rcss3net4Addr7getAddrEv
_ZNK4rcss3net4Addr7getHostEv
_ZNK4rcss3net4Addr7getPortEv
_ZNK4rcss3net6Socket11isConnectedEv
_ZNK4rcss3net6Socket5getFDEv
_ZNK4rcss3net6Socket6isOpenEv
_ZNK4rcss3net6Socket7getDestEv
_ZNK4rcss3net6Socket7getNameEv
_ZNK4rcss3net6Socket7getPeerEv
_ZNK4rcss4conf6GetterIbEclEv
_ZNK4rcss4conf6GetterIdEclEv
_ZNK4rcss4conf6GetterIiEclEv
_ZNK4rcss4conf7Builder13getModuleNameB5cxx11Ev
_ZNK4rcss4conf7Builder13parsedVersionB5cxx11Ev
_ZNK4rcss4conf7Builder20genericHelpRequestedEv
_ZNK4rcss4conf7Builder21detailedHelpRequestedEv
_ZNK4rcss4conf7Builder7successEv
_ZNK4rcss4conf7Builder7versionB5cxx11Ev
_ZNK4rcss4conf7Builder8progNameB5cxx11Ev
_ZNK4rcss4util6CompOp4swapEv
_ZNK4rcss4util6CompOp6getStrEv
_ZNK4rcss4util6CompOp7inverseEv
_ZNK4rcss4util7ArithOp6getStrEv
_ZNK4rcss4util7NullErr4whatEv
_ZNK4rcss5clang10ActDribble11printPrettyERSoRKNSt7__cxx1112basic_stringIcSt11char_traitsIcESaIcEEE
_ZNK4rcss5clang10ActDribble5printERSo
_ZNK4rcss5clang10ActDribble8deepCopyEv
_ZNK4rcss5clang10ActDribble9getRegionEv
_ZNK4rcss5clang10ActHetType11printPrettyERSoRKNSt7__cxx1112basic_stringIcSt11char_traitsIcESaIcEEE
_ZNK4rcss5clang10ActHetType13getPlayerTypeEv
_ZNK4rcss5clang10ActHetType5printERSo
_ZNK4rcss5clang10ActHetType8deepCopyEv
_ZNK4rcss5clang10ActPassReg11printPrettyERSoRKNSt7__cxx1112basic_stringIcSt11char_traitsIcESaIcEEE
_ZNK4rcss5clang10ActPassReg5printERSo
_ZNK4rcss5clang10ActPassReg8deepCopyEv
_ZNK4rcss5clang10ActPassReg9getRegionEv
_ZNK4rcss5clang10BuilderErr4whatEv
_ZNK4rcss5clang10IDListRule11printPrettyERSoRKNSt7__cxx1112basic_stringIcSt11char_traitsIcESaIcEEE
_ZNK4rcss5clang10IDListRule5printERSo
_ZNK4rcss5clang10IDListRule8deepCopyEv
_ZNK4rcss5clang10IDListRule9getIDListEv
_ZNK4rcss5clang10MsgBuilder10onNotEmptyEv
_ZNK4rcss5clang10MsgBuilder10strVarSizeEv
_ZNK4rcss5clang10MsgBuilder11checkIsItemENS1_5TypesE
_ZNK4rcss5clang10MsgBuilder11onWrongItemEv
_ZNK4rcss5clang10MsgBuilder15checkItemsEmptyEv
_ZNK4rcss5clang10MsgBuilder15freeformMsgSizeEv
_ZNK4rcss5clang10MsgBuilder6getMsgEv
_ZNK4rcss5clang10MsgBuilder6isItemENS1_5TypesE
_ZNK4rcss5clang10MsgBuilder9onNoItemsEv
_ZNK4rcss5clang10NestedRule11printPrettyERSoRKNSt7__cxx1112basic_stringIcSt11char_traitsIcESaIcEEE
_ZNK4rcss5clang10NestedRule5printERSo
_ZNK4rcss5clang10NestedRule8deepCopyEv
_ZNK4rcss5clang10NestedRule8getRulesB5cxx11Ev
_ZNK4rcss5clang10PointArith11printPrettyERSoRKNSt7__cxx1112basic_stringIcSt11char_traitsIcESaIcEEE
_ZNK4rcss5clang10PointArith5printERSo
_ZNK4rcss5clang10PointArith8deepCopyEv
_ZNK4rcss5clang10RuleIDList11printPrettyERSoRKNSt7__cxx1112basic_stringIcSt11char_traitsIcESaIcEEE
_ZNK4rcss5clang10RuleIDList3allEv
_ZNK4rcss5clang10RuleIDList5printERSo
_ZNK4rcss5clang10RuleIDList5unaryEv
_ZNK4rcss5clang10SimpleRule11printPrettyERSoRKNSt7__cxx1112basic_stringIcSt11char_traitsIcESaIcEEE
_ZNK4rcss5clang10SimpleRule5printERSo
_ZNK4rcss5clang10SimpleRule7getDirsB5cxx11Ev
_ZNK4rcss5clang10SimpleRule8deepCopyEv
_ZNK4rcss5clang11ActPassUNum10getPlayersEv
_ZNK4rcss5clang11ActPassUNum11printPrettyERSoRKNSt7__cxx1112basic_stringIcSt11char_traitsIcESaIcEEE
_ZNK4rcss5clang11ActPassUNum5printERSo
_ZNK4rcss5clang11ActPassUNum8deepCopyEv
_ZNK4rcss5clang11CondBallPos11printPrettyERSoRKNSt7__cxx1112basic_stringIcSt11char_traitsIcESaIcEEE
_ZNK4rcss5clang11CondBallPos4evalERKNS0_4Cond7ContextE
_ZNK4rcss5clang11CondBallPos5printERSo
_ZNK4rcss5clang11CondBallPos8deepCopyEv
_ZNK4rcss5clang11CondOppGoal11printPrettyERSoRKNSt7__cxx1112basic_stringIcSt11char_traitsIcESaIcEEE
_ZNK4rcss5clang11CondOppGoal4evalERKNS0_4Cond7ContextE
_ZNK4rcss5clang11CondOppGoal5printERSo
_ZNK4rcss5clang11CondOppGoal8deepCopyEv
_ZNK4rcss5clang11CondOurGoal11printPrettyERSoRKNSt7__cxx1112basic_stringIcSt11char_traitsIcESaIcEEE
_ZNK4rcss5clang11CondOurGoal4evalERKNS0_4Cond7ContextE
_ZNK4rcss5clang11CondOurGoal5printERSo
_ZNK4rcss5clang11CondOurGoal8deepCopyEv
_ZNK4rcss5clang11FreeformMsg11printPrettyERSoRKNSt7__cxx1112basic_stringIcSt11char_traitsIcESaIcEEE
_ZNK4rcss5clang11FreeformMsg5printERSo
_ZNK4rcss5clang11FreeformMsg7getTypeEv
_ZNK4rcss5clang11FreeformMsg8deepCopyEv
_ZNK4rcss5clang11PointPlayer11printPrettyERSoRKNSt7__cxx1112basic_stringIcSt11char_traitsIcESaIcEEE
_ZNK4rcss5clang11PointPlayer5printERSo
_ZNK4rcss5clang11PointPlayer8deepCopyEv
_ZNK4rcss5clang11PointSimple11printPrettyERSoRKNSt7__cxx1112basic_stringIcSt11char_traitsIcESaIcEEE
_ZNK4rcss5clang11PointSimple5printERSo
_ZNK4rcss5clang11PointSimple8deepCopyEv
_ZNK4rcss5clang12ActBallToReg11getBallMoveEv
_ZNK4rcss5clang12ActBallToReg11printPrettyERSoRKNSt7__cxx1112basic_stringIcSt11char_traitsIcESaIcEEE
_ZNK4rcss5clang12ActBallToReg5printERSo
_ZNK4rcss5clang12ActBallToReg8deepCopyEv
_ZNK4rcss5clang12ActBallToReg9getRegionEv
_ZNK4rcss5clang12ActIntercept11printPrettyERSoRKNSt7__cxx1112basic_stringIcSt11char_traitsIcESaIcEEE
_ZNK4rcss5clang12ActIntercept5printERSo
_ZNK4rcss5clang12ActIntercept8deepCopyEv
_ZNK4rcss5clang12CondGoalDiff11printPrettyERSoRKNSt7__cxx1112basic_stringIcSt11char_traitsIcESaIcEEE
_ZNK4rcss5clang12CondGoalDiff4evalERKNS0_4Cond7ContextE
_ZNK4rcss5clang12CondGoalDiff5printERSo
_ZNK4rcss5clang12CondGoalDiff8deepCopyEv
_ZNK4rcss5clang12CondPlayMode11printPrettyERSoRKNSt7__cxx1112basic_stringIcSt11char_traitsIcESaIcEEE
_ZNK4rcss5clang12CondPlayMode4evalERKNS0_4Cond7ContextE
_ZNK4rcss5clang12CondPlayMode5printERSo
_ZNK4rcss5clang12CondPlayMode8deepCopyEv
_ZNK4rcss5clang12MetaTokenVer11printPrettyERSoRKNSt7__cxx1112basic_stringIcSt11char_traitsIcESaIcEEE
_ZNK4rcss5clang12MetaTokenVer5printERSo
_ZNK4rcss5clang12MetaTokenVer8deepCopyEv
_ZNK4rcss5clang13ActivateRules11printPrettyERSoRKNSt7__cxx1112basic_stringIcSt11char_traitsIcESaIcEEE
_ZNK4rcss5clang13ActivateRules2onEv
_ZNK4rcss5clang13ActivateRules3allEv
_ZNK4rcss5clang13ActivateRules5printERSo
_ZNK4rcss5clang13ActivateRules5unaryEv
_ZNK4rcss5clang13ActivateRules7getListEv
_ZNK4rcss5clang13CondBallOwner11printPrettyERSoRKNSt7__cxx1112basic_stringIcSt11char_traitsIcESaIcEEE
_ZNK4rcss5clang13CondBallOwner4evalERKNS0_4Cond7ContextE
_ZNK4rcss5clang13CondBallOwner5printERSo
_ZNK4rcss5clang13CondBallOwner8deepCopyEv
_ZNK4rcss5clang13CondPlayerPos11printPrettyERSoRKNSt7__cxx1112basic_stringIcSt11char_traitsIcESaIcEEE
_ZNK4rcss5clang13CondPlayerPos4evalERKNS0_4Cond7ContextE
_ZNK4rcss5clang13CondPlayerPos5printERSo
_ZNK4rcss5clang13CondPlayerPos8deepCopyEv
_ZNK4rcss5clang14ActMarkLineReg11printPrettyERSoRKNSt7__cxx1112basic_stringIcSt11char_traitsIcESaIcEEE
_ZNK4rcss5clang14ActMarkLineReg5printERSo
_ZNK4rcss5clang14ActMarkLineReg8deepCopyEv
_ZNK4rcss5clang14ActMarkLineReg9getRegionEv
_ZNK4rcss5clang15ActBallToPlayer10getPlayersEv
_ZNK4rcss5clang15ActBallToPlayer11printPrettyERSoRKNSt7__cxx1112basic_stringIcSt11char_traitsIcESaIcEEE
_ZNK4rcss5clang15ActBallToPlayer5printERSo
_ZNK4rcss5clang15ActBallToPlayer8deepCopyEv
_ZNK4rcss5clang15ActOffsidesLine11printPrettyERSoRKNSt7__cxx1112basic_stringIcSt11char_traitsIcESaIcEEE
_ZNK4rcss5clang15ActOffsidesLine5printERSo
_ZNK4rcss5clang15ActOffsidesLine8deepCopyEv
_ZNK4rcss5clang15ActOffsidesLine9getRegionEv
_ZNK4rcss5clang17ActMarkLinePlayer10getPlayersEv
_ZNK4rcss5clang17ActMarkLinePlayer11printPrettyERSoRKNSt7__cxx1112basic_stringIcSt11char_traitsIcESaIcEEE
_ZNK4rcss5clang17ActMarkLinePlayer5printERSo
_ZNK4rcss5clang17ActMarkLinePlayer8deepCopyEv
_ZNK4rcss5clang3Msg11getTimeRecvEv
_ZNK4rcss5clang3Msg11getTimeSendEv
_ZNK4rcss5clang3Msg11isSupportedEjj
_ZNK4rcss5clang3Msg7getSideEv
_ZNK4rcss5clang3Msg9getMaxVerEv
_ZNK4rcss5clang3Msg9getMinVerEv
_ZNK4rcss5clang6ActPos11printPrettyERSoRKNSt7__cxx1112basic_stringIcSt11char_traitsIcESaIcEEE
_ZNK4rcss5clang6ActPos5printERSo
_ZNK4rcss5clang6ActPos8deepCopyEv
_ZNK4rcss5clang6ActPos9getRegionEv
_ZNK4rcss5clang6CondOr11printPrettyERSoRKNSt7__cxx1112basic_stringIcSt11char_traitsIcESaIcEEE
_ZNK4rcss5clang6CondOr4evalERKNS0_4Cond7ContextE
_ZNK4rcss5clang6CondOr5printERSo
_ZNK4rcss5clang6CondOr8deepCopyEv
_ZNK4rcss5clang6DefAct11printPrettyERSoRKNSt7__cxx1112basic_stringIcSt11char_traitsIcESaIcEEE
_ZNK4rcss5clang6DefAct5printERSo
_ZNK4rcss5clang6DefAct8deepCopyEv
_ZNK4rcss5clang6DefDir11printPrettyERSoRKNSt7__cxx1112basic_stringIcSt11char_traitsIcESaIcEEE
_ZNK4rcss5clang6DefDir5printERSo
_ZNK4rcss5clang6DefDir8deepCopyEv
_ZNK4rcss5clang6DefReg11printPrettyERSoRKNSt7__cxx1112basic_stringIcSt11char_traitsIcESaIcEEE
_ZNK4rcss5clang6DefReg5printERSo
_ZNK4rcss5clang6DefReg8deepCopyEv
_ZNK4rcss5clang6DelMsg11printPrettyERSoRKNSt7__cxx1112basic_stringIcSt11char_traitsIcESaIcEEE
_ZNK4rcss5clang6DelMsg5printERSo
_ZNK4rcss5clang6DelMsg7getTypeEv
_ZNK4rcss5clang6DelMsg8deepCopyEv
_ZNK4rcss5clang6RegArc11printPrettyERSoRKNSt7__cxx1112basic_stringIcSt11char_traitsIcESaIcEEE
_ZNK4rcss5clang6RegArc5printERSo
_ZNK4rcss5clang6RegArc8deepCopyEv
_ZNK4rcss5clang6RegRec11printPrettyERSoRKNSt7__cxx1112basic_stringIcSt11char_traitsIcESaIcEEE
_ZNK4rcss5clang6RegRec5printERSo
_ZNK4rcss5clang6RegRec8deepCopyEv
_ZNK4rcss5clang6RegTri11printPrettyERSoRKNSt7__cxx1112basic_stringIcSt11char_traitsIcESaIcEEE
_ZNK4rcss5clang6RegTri5printERSo
_ZNK4rcss5clang6RegTri8deepCopyEv
_ZNK4rcss5clang7ActHold11printPrettyERSoRKNSt7__cxx1112basic_stringIcSt11char_traitsIcESaIcEEE
_ZNK4rcss5clang7ActHold5printERSo
_ZNK4rcss5clang7ActHold8deepCopyEv
_ZNK4rcss5clang7ActHome11printPrettyERSoRKNSt7__cxx1112basic_stringIcSt11char_traitsIcESaIcEEE
_ZNK4rcss5clang7ActHome5printERSo
_ZNK4rcss5clang7ActHome8deepCopyEv
_ZNK4rcss5clang7ActHome9getRegionEv
_ZNK4rcss5clang7ActMark10getPlayersEv
_ZNK4rcss5clang7ActMark11printPrettyERSoRKNSt7__cxx1112basic_stringIcSt11char_traitsIcESaIcEEE
_ZNK4rcss5clang7ActMark5printERSo
_ZNK4rcss5clang7ActMark8deepCopyEv
_ZNK4rcss5clang7CondAnd11printPrettyERSoRKNSt7__cxx1112basic_stringIcSt11char_traitsIcESaIcEEE
_ZNK4rcss5clang7CondAnd4evalERKNS0_4Cond7ContextE
_ZNK4rcss5clang7CondAnd5printERSo
_ZNK4rcss5clang7CondAnd8deepCopyEv
_ZNK4rcss5clang7CondNot11printPrettyERSoRKNSt7__cxx1112basic_stringIcSt11char_traitsIcESaIcEEE
_ZNK4rcss5clang7CondNot4evalERKNS0_4Cond7ContextE
_ZNK4rcss5clang7CondNot5printERSo
_ZNK4rcss5clang7CondNot8deepCopyEv
_ZNK4rcss5clang7DefCond11printPrettyERSoRKNSt7__cxx1112basic_stringIcSt11char_traitsIcESaIcEEE
_ZNK4rcss5clang7DefCond5printERSo
_ZNK4rcss5clang7DefCond8deepCopyEv
_ZNK4rcss5clang7DefRule11printPrettyERSoRKNSt7__cxx1112basic_stringIcSt11char_traitsIcESaIcEEE
_ZNK4rcss5clang7DefRule5printERSo
_ZNK4rcss5clang7DefRule8deepCopyEv
_ZNK4rcss5clang7DirComm11printPrettyERSoRKNSt7__cxx1112basic_stringIcSt11char_traitsIcESaIcEEE
_ZNK4rcss5clang7DirComm5printERSo
_ZNK4rcss5clang7DirComm8deepCopyEv
_ZNK4rcss5clang7InfoMsg11printPrettyERSoRKNSt7__cxx1112basic_stringIcSt11char_traitsIcESaIcEEE
_ZNK4rcss5clang7InfoMsg5printERSo
_ZNK4rcss5clang7InfoMsg7getTypeEv
_ZNK4rcss5clang7InfoMsg8deepCopyEv
_ZNK4rcss5clang7MetaMsg11printPrettyERSoRKNSt7__cxx1112basic_stringIcSt11char_traitsIcESaIcEEE
_ZNK4rcss5clang7MetaMsg5printERSo
_ZNK4rcss5clang7MetaMsg7getTypeEv
_ZNK4rcss5clang7MetaMsg8deepCopyEv
_ZNK4rcss5clang7RegNull11printPrettyERSoRKNSt7__cxx1112basic_stringIcSt11char_traitsIcESaIcEEE
_ZNK4rcss5clang7RegNull5printERSo
_ZNK4rcss5clang7RegNull8deepCopyEv
_ZNK4rcss5clang7RegQuad11printPrettyERSoRKNSt7__cxx1112basic_stringIcSt11char_traitsIcESaIcEEE
_ZNK4rcss5clang7RegQuad5printERSo
_ZNK4rcss5clang7RegQuad8deepCopyEv
_ZNK4rcss5clang7RuleMsg11printPrettyERSoRKNSt7__cxx1112basic_stringIcSt11char_traitsIcESaIcEEE
_ZNK4rcss5clang7RuleMsg5printERSo
_ZNK4rcss5clang7RuleMsg7getTypeEv
_ZNK4rcss5clang7RuleMsg8deepCopyEv
_ZNK4rcss5clang7TokRule11printPrettyERSoRKNSt7__cxx1112basic_stringIcSt11char_traitsIcESaIcEEE
_ZNK4rcss5clang7TokRule5printERSo
_ZNK4rcss5clang7TokRule8deepCopyEv
_ZNK4rcss5clang7UNumSet8containsERKNS0_4UNumE
_ZNK4rcss5clang8ActClear11printPrettyERSoRKNSt7__cxx1112basic_stringIcSt11char_traitsIcESaIcEEE
_ZNK4rcss5clang8ActClear5printERSo
_ZNK4rcss5clang8ActClear8deepCopyEv
_ZNK4rcss5clang8ActClear9getRegionEv
_ZNK4rcss5clang8ActNamed11printPrettyERSoRKNSt7__cxx1112basic_stringIcSt11char_traitsIcESaIcEEE
_ZNK4rcss5clang8ActNamed5printERSo
_ZNK4rcss5clang8ActNamed7getNameB5cxx11Ev
_ZNK4rcss5clang8ActNamed8deepCopyEv
_ZNK4rcss5clang8ActShoot11printPrettyERSoRKNSt7__cxx1112basic_stringIcSt11char_traitsIcESaIcEEE
_ZNK4rcss5clang8ActShoot5printERSo
_ZNK4rcss5clang8ActShoot8deepCopyEv
_ZNK4rcss5clang8BallMove5printERSo
_ZNK4rcss5clang8BallMove8isMemberERKNS0_13BallMoveTokenE
_ZNK4rcss5clang8CondBool11printPrettyERSoRKNSt7__cxx1112basic_stringIcSt11char_traitsIcESaIcEEE
_ZNK4rcss5clang8CondBool4evalERKNS0_4Cond7ContextE
_ZNK4rcss5clang8CondBool5printERSo
_ZNK4rcss5clang8CondBool8deepCopyEv
_ZNK4rcss5clang8CondRule7getCondEv
_ZNK4rcss5clang8CondTime11printPrettyERSoRKNSt7__cxx1112basic_stringIcSt11char_traitsIcESaIcEEE
_ZNK4rcss5clang8CondTime4evalERKNS0_4Cond7ContextE
_ZNK4rcss5clang8CondTime5printERSo
_ZNK4rcss5clang8CondTime8deepCopyEv
_ZNK4rcss5clang8CondUNum11printPrettyERSoRKNSt7__cxx1112basic_stringIcSt11char_traitsIcESaIcEEE
_ZNK4rcss5clang8CondUNum4evalERKNS0_4Cond7ContextE
_ZNK4rcss5clang8CondUNum5printERSo
_ZNK4rcss5clang8CondUNum8deepCopyEv
_ZNK4rcss5clang8DirNamed11printPrettyERSoRKNSt7__cxx1112basic_stringIcSt11char_traitsIcESaIcEEE
_ZNK4rcss5clang8DirNamed5printERSo
_ZNK4rcss5clang8DirNamed8deepCopyEv
_ZNK4rcss5clang8PointRel11printPrettyERSoRKNSt7__cxx1112basic_stringIcSt11char_traitsIcESaIcEEE
_ZNK4rcss5clang8PointRel5printERSo
_ZNK4rcss5clang8PointRel8deepCopyEv
_ZNK4rcss5clang8RegNamed11printPrettyERSoRKNSt7__cxx1112basic_stringIcSt11char_traitsIcESaIcEEE
_ZNK4rcss5clang8RegNamed5printERSo
_ZNK4rcss5clang8RegNamed8deepCopyEv
_ZNK4rcss5clang8RegPoint11printPrettyERSoRKNSt7__cxx1112basic_stringIcSt11char_traitsIcESaIcEEE
_ZNK4rcss5clang8RegPoint5printERSo
_ZNK4rcss5clang8RegPoint8deepCopyEv
_ZNK4rcss5clang8RegUnion11printPrettyERSoRKNSt7__cxx1112basic_stringIcSt11char_traitsIcESaIcEEE
_ZNK4rcss5clang8RegUnion5printERSo
_ZNK4rcss5clang8RegUnion8deepCopyEv
_ZNK4rcss5clang8TokClear11printPrettyERSoRKNSt7__cxx1112basic_stringIcSt11char_traitsIcESaIcEEE
_ZNK4rcss5clang8TokClear5printERSo
_ZNK4rcss5clang8TokClear8deepCopyEv
_ZNK4rcss5clang9ActTackle10getPlayersEv
_ZNK4rcss5clang9ActTackle11printPrettyERSoRKNSt7__cxx1112basic_stringIcSt11char_traitsIcESaIcEEE
_ZNK4rcss5clang9ActTackle5printERSo
_ZNK4rcss5clang9ActTackle8deepCopyEv
_ZNK4rcss5clang9AdviceMsg11printPrettyERSoRKNSt7__cxx1112basic_stringIcSt11char_traitsIcESaIcEEE
_ZNK4rcss5clang9AdviceMsg5printERSo
_ZNK4rcss5clang9AdviceMsg7getTypeEv
_ZNK4rcss5clang9AdviceMsg8deepCopyEv
_ZNK4rcss5clang9CondNamed11printPrettyERSoRKNSt7__cxx1112basic_stringIcSt11char_traitsIcESaIcEEE
_ZNK4rcss5clang9CondNamed4evalERKNS0_4Cond7ContextE
_ZNK4rcss5clang9CondNamed5printERSo
_ZNK4rcss5clang9CondNamed8deepCopyEv
_ZNK4rcss5clang9DefineMsg11printPrettyERSoRKNSt7__cxx1112basic_stringIcSt11char_traitsIcESaIcEEE
_ZNK4rcss5clang9DefineMsg5printERSo
_ZNK4rcss5clang9DefineMsg7getTypeEv
_ZNK4rcss5clang9DefineMsg8deepCopyEv
_ZNK4rcss5clang9PointBall11printPrettyERSoRKNSt7__cxx1112basic_stringIcSt11char_traitsIcESaIcEEE
_ZNK4rcss5clang9PointBall5printERSo
_ZNK4rcss5clang9PointBall8deepCopyEv
_ZNK4rcss5clang9UnsuppMsg11printPrettyERSoRKNSt7__cxx1112basic_stringIcSt11char_traitsIcESaIcEEE
_ZNK4rcss5clang9UnsuppMsg5printERSo
_ZNK4rcss5clang9UnsuppMsg7getTypeEv
_ZNK4rcss5clang9UnsuppMsg8deepCopyEv
_ZNK5boost10filesystem4path11parent_pathEv
_ZNK5boost10filesystem4path14root_directoryEv
_ZNK5boost16exception_detail10clone_implINS0_19error_info_injectorINS_6spirit7classic12parser_errorIN4rcss4conf6Parser6ErrorsEPKcEEEEE5cloneEv
_ZNK5boost16exception_detail10clone_implINS0_19error_info_injectorINS_6spirit7classic12parser_errorIN4rcss4conf6Parser6ErrorsEPKcEEEEE7rethrowEv
_ZNK5boost3_bi6bind_tIbNS_4_mfi3mf2IbN4rcss4conf6ParserEPKcS8_EENS0_5list3INS0_5valueIPS6_EENS_3argILi1EEENSE_ILi2EEEEEEclIS8_S8_EEbRKT_RKT0_
_ZNK5boost3_bi6bind_tIvNS_4_mfi3mf2IvN4rcss4conf6ParserEPKcS8_EENS0_5list3INS0_5valueIPS6_EENS_3argILi1EEENSE_ILi2EEEEEEclIS8_S8_EEvRKT_RKT0_
_ZNK5boost4_mfi3mf0IvN4rcss4conf6ParserEEclEPS4_
_ZNK5boost6spirit7classic10eol_parser5parseINS1_7scannerIPKcNS1_16scanner_policiesINS1_16iteration_policyENS1_12match_policyENS1_13action_policyEEEEEEENS1_13parser_resultIS2_T_E4typeERKSE_
_ZNK5boost6spirit7classic11alternativeINS1_10eol_parserENS1_10end_parserEE5parseINS1_7scannerIPKcNS1_16scanner_policiesINS1_16iteration_policyENS1_12match_policyENS1_13action_policyEEEEEEENS1_13parser_resultIS5_T_E4typeERKSH_
_ZNK5boost6spirit7classic11char_parserINS1_14anychar_parserEE5parseINS1_7scannerIPKcNS1_16scanner_policiesINS1_16iteration_policyENS1_12match_policyENS1_13action_policyEEEEEEENS1_13parser_resultIS3_T_E4typeERKSG_.isra.300
_ZNK5boost6spirit7classic11char_parserINS1_5chlitIcEEE5parseINS1_7scannerIPKcNS1_16scanner_policiesINS1_16iteration_policyENS1_12match_policyENS1_13action_policyEEEEEEENS1_13parser_resultIS4_T_E4typeERKSH_
_ZNK5boost6spirit7classic11char_parserINS1_5chsetIcEEE5parseINS1_7scannerIPKcNS1_16scanner_policiesINS1_16iteration_policyENS1_12match_policyENS1_13action_policyEEEEEEENS1_13parser_resultIS4_T_E4typeERKSH_
_ZNK5boost6spirit7classic11kleene_starINS1_10differenceINS1_14anychar_parserENS1_11alternativeINS1_10eol_parserENS1_10end_parserEEEEEE5parseINS1_7scannerIPKcNS1_16scanner_policiesINS1_16iteration_policyENS1_12match_policyENS1_13action_policyEEEEEEENS1_13parser_resultISA_T_E4typeERKSM_
_ZNK5boost6spirit7classic11kleene_starINS1_10differenceINS1_14anychar_parserENS1_6strlitIPKcEEEEE5parseINS1_7scannerIS7_NS1_16scanner_policiesINS1_16iteration_policyENS1_12match_policyENS1_13action_policyEEEEEEENS1_13parser_resultISA_T_E4typeERKSK_
_ZNK5boost6spirit7classic11kleene_starINS1_4ruleINS1_5nil_tES4_S4_EEE5parseINS1_7scannerIPKcNS1_16scanner_policiesINS1_16iteration_policyENS1_12match_policyENS1_13action_policyEEEEEEENS1_13parser_resultIS6_T_E4typeERKSI_
_ZNK5boost6spirit7classic11kleene_starINS1_8sequenceINS1_4ruleINS1_5nil_tES5_S5_EENS1_6actionINS1_10differenceIS6_NS1_12inhibit_caseINS1_6strlitIPKcEEEEEENS_3_bi6bind_tIvNS_4_mfi3mf2IvN4rcss4conf6ParserESC_SC_EENSG_5list3INSG_5valueIPSM_EENS_3argILi1EEENSS_ILi2EEEEEEEEEEEE5parseINS1_7scannerISC_NS1_16scanner_policiesINS1_16iteration_policyENS1_12match_policyENS1_13action_policyEEEEEEENS1_13parser_resultISZ_T_E4typeERKS19_
_ZNK5boost6spirit7classic12parser_errorIN4rcss4conf6Parser6ErrorsEPKcE4whatEv
_ZNK5boost6spirit7classic13confix_parserINS1_6strlitIPKcEENS1_11kleene_starINS1_14anychar_parserEEENS1_11alternativeINS1_10eol_parserENS1_10end_parserEEENS1_21unary_parser_categoryENS1_10non_nestedENS1_9is_lexemeEE5parseINS1_7scannerIS5_NS1_16scanner_policiesINS1_16iteration_policyENS1_12match_policyENS1_13action_policyEEEEEEENS1_13parser_resultISH_T_E4typeERKSR_
_ZNK5boost6spirit7classic16assertive_parserIN4rcss4conf6Parser6ErrorsENS1_4ruleINS1_5nil_tES8_S8_EEE5parseINS1_7scannerIPKcNS1_16scanner_policiesINS1_16iteration_policyENS1_12match_policyENS1_13action_policyEEEEEEENS1_13parser_resultISA_T_E4typeERKSM_
_ZNK5boost6spirit7classic28inhibit_case_parser_gen_baseILi0EEixEPKc.isra.52
_ZNK5boost6spirit7classic4impl15concrete_parserINS1_10eol_parserENS1_7scannerIPKcNS1_16scanner_policiesINS1_16iteration_policyENS1_12match_policyENS1_13action_policyEEEEENS1_5nil_tEE16do_parse_virtualERKSD_
_ZNK5boost6spirit7classic4impl15concrete_parserINS1_10eol_parserENS1_7scannerIPKcNS1_16scanner_policiesINS1_16iteration_policyENS1_12match_policyENS1_13action_policyEEEEENS1_5nil_tEE5cloneEv
_ZNK5boost6spirit7classic4impl15concrete_parserINS1_11alternativeINS1_12inhibit_caseINS1_6strlitIPKcEEEESA_EENS1_7scannerIS8_NS1_16scanner_policiesINS1_16iteration_policyENS1_12match_policyENS1_13action_policyEEEEENS1_5nil_tEE16do_parse_virtualERKSI_
_ZNK5boost6spirit7classic4impl15concrete_parserINS1_11alternativeINS1_12inhibit_caseINS1_6strlitIPKcEEEESA_EENS1_7scannerIS8_NS1_16scanner_policiesINS1_16iteration_policyENS1_12match_policyENS1_13action_policyEEEEENS1_5nil_tEE5cloneEv
_ZNK5boost6spirit7classic4impl15concrete_parserINS1_11alternativeINS1_4ruleINS1_5nil_tES6_S6_EENS1_8sequenceINS8_INS1_8optionalIS7_EESA_EES7_EEEENS1_7scannerIPKcNS1_16scanner_policiesINS1_16iteration_policyENS1_12match_policyENS1_13action_policyEEEEES6_E16do_parse_virtualERKSM_
_ZNK5boost6spirit7classic4impl15concrete_parserINS1_11alternativeINS1_4ruleINS1_5nil_tES6_S6_EENS1_8sequenceINS8_INS1_8optionalIS7_EESA_EES7_EEEENS1_7scannerIPKcNS1_16scanner_policiesINS1_16iteration_policyENS1_12match_policyENS1_13action_policyEEEEES6_E5cloneEv
_ZNK5boost6spirit7classic4impl15concrete_parserINS1_11alternativeINS1_6strlitIPKcEENS1_4ruleINS1_5nil_tESA_SA_EEEENS1_7scannerIS7_NS1_16scanner_policiesINS1_16iteration_policyENS1_12match_policyENS1_13action_policyEEEEESA_E16do_parse_virtualERKSJ_
_ZNK5boost6spirit7classic4impl15concrete_parserINS1_11alternativeINS1_6strlitIPKcEENS1_4ruleINS1_5nil_tESA_SA_EEEENS1_7scannerIS7_NS1_16scanner_policiesINS1_16iteration_policyENS1_12match_policyENS1_13action_policyEEEEESA_E5cloneEv
_ZNK5boost6spirit7classic4impl15concrete_parserINS1_11alternativeINS4_INS1_13confix_parserINS1_6strlitIPKcEENS1_11kleene_starINS1_14anychar_parserEEES9_NS1_21unary_parser_categoryENS1_10non_nestedENS1_9is_lexemeEEENS5_IS9_SC_NS4_INS1_10eol_parserENS1_10end_parserEEESD_SE_SF_EEEESK_EENS1_7scannerIS8_NS1_16scanner_policiesINS1_16iteration_policyENS1_12match_policyENS1_13action_policyEEEEENS1_5nil_tEE16do_parse_virtualERKST_
_ZNK5boost6spirit7classic4impl15concrete_parserINS1_11alternativeINS4_INS1_13confix_parserINS1_6strlitIPKcEENS1_11kleene_starINS1_14anychar_parserEEES9_NS1_21unary_parser_categoryENS1_10non_nestedENS1_9is_lexemeEEENS5_IS9_SC_NS4_INS1_10eol_parserENS1_10end_parserEEESD_SE_SF_EEEESK_EENS1_7scannerIS8_NS1_16scanner_policiesINS1_16iteration_policyENS1_12match_policyENS1_13action_policyEEEEENS1_5nil_tEE5cloneEv
_ZNK5boost6spirit7classic4impl15concrete_parserINS1_11alternativeINS4_INS1_4ruleINS1_5nil_tES6_S6_EENS1_6actionIS7_NS_3_bi6bind_tIvNS_4_mfi3mf2IvN4rcss4conf6ParserEPKcSH_EENS9_5list3INS9_5valueIPSF_EENS_3argILi1EEENSN_ILi2EEEEEEEEEEESS_EENS1_7scannerISH_NS1_16scanner_policiesINS1_16iteration_policyENS1_12match_policyENS1_13action_policyEEEEES6_E16do_parse_virtualERKS11_
_ZNK5boost6spirit7classic4impl15concrete_parserINS1_11alternativeINS4_INS1_4ruleINS1_5nil_tES6_S6_EENS1_6actionIS7_NS_3_bi6bind_tIvNS_4_mfi3mf2IvN4rcss4conf6ParserEPKcSH_EENS9_5list3INS9_5valueIPSF_EENS_3argILi1EEENSN_ILi2EEEEEEEEEEESS_EENS1_7scannerISH_NS1_16scanner_policiesINS1_16iteration_policyENS1_12match_policyENS1_13action_policyEEEEES6_E5cloneEv
_ZNK5boost6spirit7classic4impl15concrete_parserINS1_11alternativeINS4_INS1_4ruleINS1_5nil_tES6_S6_EES7_EES7_EENS1_7scannerIPKcNS1_16scanner_policiesINS1_16iteration_policyENS1_12match_policyENS1_13action_policyEEEEES6_E16do_parse_virtualERKSI_
_ZNK5boost6spirit7classic4impl15concrete_parserINS1_11alternativeINS4_INS1_4ruleINS1_5nil_tES6_S6_EES7_EES7_EENS1_7scannerIPKcNS1_16scanner_policiesINS1_16iteration_policyENS1_12match_policyENS1_13action_policyEEEEES6_E5cloneEv
_ZNK5boost6spirit7classic4impl15concrete_parserINS1_11alternativeINS4_INS4_INS1_6actionINS1_12inhibit_caseINS1_6strlitIPKcEEEENS_3_bi6bind_tIvNS_4_mfi3mf0IvN4rcss4conf6ParserEEENSC_5list1INSC_5valueIPSI_EEEEEEEENS5_INS1_8sequenceINSR_INS1_4ruleINS1_5nil_tEST_ST_EESU_EESB_EESP_EEEESU_EESU_EENS1_7scannerIS9_NS1_16scanner_policiesINS1_16iteration_policyENS1_12match_policyENS1_13action_policyEEEEEST_E16do_parse_virtualERKS17_
_ZNK5boost6spirit7classic4impl15concrete_parserINS1_11alternativeINS4_INS4_INS1_6actionINS1_12inhibit_caseINS1_6strlitIPKcEEEENS_3_bi6bind_tIvNS_4_mfi3mf0IvN4rcss4conf6ParserEEENSC_5list1INSC_5valueIPSI_EEEEEEEENS5_INS1_8sequenceINSR_INS1_4ruleINS1_5nil_tEST_ST_EESU_EESB_EESP_EEEESU_EESU_EENS1_7scannerIS9_NS1_16scanner_policiesINS1_16iteration_policyENS1_12match_policyENS1_13action_policyEEEEEST_E5cloneEv
_ZNK5boost6spirit7classic4impl15concrete_parserINS1_11kleene_starINS1_4ruleINS1_5nil_tES6_S6_EEEENS1_7scannerIPKcNS1_16scanner_policiesINS1_16iteration_policyENS1_12match_policyENS1_13action_policyEEEEES6_E16do_parse_virtualERKSH_
_ZNK5boost6spirit7classic4impl15concrete_parserINS1_11kleene_starINS1_4ruleINS1_5nil_tES6_S6_EEEENS1_7scannerIPKcNS1_16scanner_policiesINS1_16iteration_policyENS1_12match_policyENS1_13action_policyEEEEES6_E5cloneEv
_ZNK5boost6spirit7classic4impl15concrete_parserINS1_15fallback_parserIN4rcss4conf6Parser6ErrorsENS1_11kleene_starINS1_4ruleINS1_5nil_tESB_SB_EEEENS_3_bi6bind_tINS1_12error_statusISB_EEPFSH_PKS7_RKNS1_7scannerIPKcNS1_16scanner_policiesINS1_16iteration_policyENS1_12match_policyENS1_13action_policyEEEEERKNS1_12parser_errorIS8_SM_EEENSE_5list3INSE_5valueIPS7_EENS_3argILi1EEENS15_ILi2EEEEEEEEESS_SB_E16do_parse_virtualESU_
_ZNK5boost6spirit7classic4impl15concrete_parserINS1_15fallback_parserIN4rcss4conf6Parser6ErrorsENS1_11kleene_starINS1_4ruleINS1_5nil_tESB_SB_EEEENS_3_bi6bind_tINS1_12error_statusISB_EEPFSH_PKS7_RKNS1_7scannerIPKcNS1_16scanner_policiesINS1_16iteration_policyENS1_12match_policyENS1_13action_policyEEEEERKNS1_12parser_errorIS8_SM_EEENSE_5list3INSE_5valueIPS7_EENS_3argILi1EEENS15_ILi2EEEEEEEEESS_SB_E5cloneEv
_ZNK5boost6spirit7classic4impl15concrete_parserINS1_19negated_char_parserINS1_5chlitIcEEEENS1_7scannerIPKcNS1_16scanner_policiesINS1_16iteration_policyENS1_12match_policyENS1_13action_policyEEEEENS1_5nil_tEE16do_parse_virtualERKSG_
_ZNK5boost6spirit7classic4impl15concrete_parserINS1_19negated_char_parserINS1_5chlitIcEEEENS1_7scannerIPKcNS1_16scanner_policiesINS1_16iteration_policyENS1_12match_policyENS1_13action_policyEEEEENS1_5nil_tEE5cloneEv
_ZNK5boost6spirit7classic4impl15concrete_parserINS1_5chlitIcEENS1_7scannerIPKcNS1_16scanner_policiesINS1_16iteration_policyENS1_12match_policyENS1_13action_policyEEEEENS1_5nil_tEE16do_parse_virtualERKSE_
_ZNK5boost6spirit7classic4impl15concrete_parserINS1_5chlitIcEENS1_7scannerIPKcNS1_16scanner_policiesINS1_16iteration_policyENS1_12match_policyENS1_13action_policyEEEEENS1_5nil_tEE5cloneEv
_ZNK5boost6spirit7classic4impl15concrete_parserINS1_6strlitIPKcEENS1_7scannerIS6_NS1_16scanner_policiesINS1_16iteration_policyENS1_12match_policyENS1_13action_policyEEEEENS1_5nil_tEE16do_parse_virtualERKSE_
_ZNK5boost6spirit7classic4impl15concrete_parserINS1_6strlitIPKcEENS1_7scannerIS6_NS1_16scanner_policiesINS1_16iteration_policyENS1_12match_policyENS1_13action_policyEEEEENS1_5nil_tEE5cloneEv
_ZNK5boost6spirit7classic4impl15concrete_parserINS1_8positiveINS1_5chsetIcEEEENS1_7scannerIPKcNS1_16scanner_policiesINS1_16iteration_policyENS1_12match_policyENS1_13action_policyEEEEENS1_5nil_tEE16do_parse_virtualERKSG_
_ZNK5boost6spirit7classic4impl15concrete_parserINS1_8positiveINS1_5chsetIcEEEENS1_7scannerIPKcNS1_16scanner_policiesINS1_16iteration_policyENS1_12match_policyENS1_13action_policyEEEEENS1_5nil_tEE5cloneEv
_ZNK5boost6spirit7classic4impl15concrete_parserINS1_8sequenceINS1_6actionINS1_10differenceINS1_4ruleINS1_5nil_tES8_S8_EES9_EENS_3_bi6bind_tIbNS_4_mfi3mf2IbN4rcss4conf6ParserEPKcSJ_EENSB_5list3INSB_5valueIPSH_EENS_3argILi1EEENSP_ILi2EEEEEEEEENS1_11kleene_starINS4_IS9_NS5_INS6_IS9_NS1_12inhibit_caseINS1_6strlitISJ_EEEEEENSC_IvNSE_IvSH_SJ_SJ_EESS_EEEEEEEEEENS1_7scannerISJ_NS1_16scanner_policiesINS1_16iteration_policyENS1_12match_policyENS1_13action_policyEEEEES8_E16do_parse_virtualERKS1D_
_ZNK5boost6spirit7classic4impl15concrete_parserINS1_8sequenceINS1_6actionINS1_10differenceINS1_4ruleINS1_5nil_tES8_S8_EES9_EENS_3_bi6bind_tIbNS_4_mfi3mf2IbN4rcss4conf6ParserEPKcSJ_EENSB_5list3INSB_5valueIPSH_EENS_3argILi1EEENSP_ILi2EEEEEEEEENS1_11kleene_starINS4_IS9_NS5_INS6_IS9_NS1_12inhibit_caseINS1_6strlitISJ_EEEEEENSC_IvNSE_IvSH_SJ_SJ_EESS_EEEEEEEEEENS1_7scannerISJ_NS1_16scanner_policiesINS1_16iteration_policyENS1_12match_policyENS1_13action_policyEEEEES8_E5cloneEv
_ZNK5boost6spirit7classic4impl15concrete_parserINS1_8sequenceINS1_8positiveINS1_5chsetIcEEEENS1_11kleene_starIS7_EEEENS1_7scannerIPKcNS1_16scanner_policiesINS1_16iteration_policyENS1_12match_policyENS1_13action_policyEEEEENS1_5nil_tEE16do_parse_virtualERKSK_
_ZNK5boost6spirit7classic4impl15concrete_parserINS1_8sequenceINS1_8positiveINS1_5chsetIcEEEENS1_11kleene_starIS7_EEEENS1_7scannerIPKcNS1_16scanner_policiesINS1_16iteration_policyENS1_12match_policyENS1_13action_policyEEEEENS1_5nil_tEE5cloneEv
_ZNK5boost6spirit7classic4impl15concrete_parserINS1_8sequenceINS4_INS1_5chlitIcEENS1_11kleene_starINS1_4ruleINS1_5nil_tES9_S9_EEEEEES6_EENS1_7scannerIPKcNS1_16scanner_policiesINS1_16iteration_policyENS1_12match_policyENS1_13action_policyEEEEES9_E16do_parse_virtualERKSM_
_ZNK5boost6spirit7classic4impl15concrete_parserINS1_8sequenceINS4_INS1_5chlitIcEENS1_11kleene_starINS1_4ruleINS1_5nil_tES9_S9_EEEEEES6_EENS1_7scannerIPKcNS1_16scanner_policiesINS1_16iteration_policyENS1_12match_policyENS1_13action_policyEEEEES9_E5cloneEv
_ZNK5boost6spirit7classic4impl15concrete_parserINS1_8sequenceINS4_INS1_6actionINS1_10differenceINS1_4ruleINS1_5nil_tES8_S8_EES9_EENS_3_bi6bind_tIbNS_4_mfi3mf2IbN4rcss4conf6ParserEPKcSJ_EENSB_5list3INSB_5valueIPSH_EENS_3argILi1EEENSP_ILi2EEEEEEEEENS4_INS1_16assertive_parserINSH_6ErrorsES9_EENS5_INS6_IS9_NS1_12inhibit_caseINS1_6strlitISJ_EEEEEENSC_IvNSE_IvSH_SJ_SJ_EESS_EEEEEEEENS1_11kleene_starINS4_IS9_S15_EEEEEENS1_7scannerISJ_NS1_16scanner_policiesINS1_16iteration_policyENS1_12match_policyENS1_13action_policyEEEEES8_E16do_parse_virtualERKS1I_
_ZNK5boost6spirit7classic4impl15concrete_parserINS1_8sequenceINS4_INS1_6actionINS1_10differenceINS1_4ruleINS1_5nil_tES8_S8_EES9_EENS_3_bi6bind_tIbNS_4_mfi3mf2IbN4rcss4conf6ParserEPKcSJ_EENSB_5list3INSB_5valueIPSH_EENS_3argILi1EEENSP_ILi2EEEEEEEEENS4_INS1_16assertive_parserINSH_6ErrorsES9_EENS5_INS6_IS9_NS1_12inhibit_caseINS1_6strlitISJ_EEEEEENSC_IvNSE_IvSH_SJ_SJ_EESS_EEEEEEEENS1_11kleene_starINS4_IS9_S15_EEEEEENS1_7scannerISJ_NS1_16scanner_policiesINS1_16iteration_policyENS1_12match_policyENS1_13action_policyEEEEES8_E5cloneEv
_ZNK5boost6spirit7classic4impl15concrete_parserINS1_8sequenceINS4_INS4_INS4_INS1_12inhibit_caseINS1_6strlitIPKcEEEENS1_4ruleINS1_5nil_tESC_SC_EEEENS1_16assertive_parserIN4rcss4conf6Parser6ErrorsESD_EEEESD_EENSF_ISJ_NS1_6actionISD_NS_3_bi6bind_tIbNS_4_mfi3mf2IbSI_S8_S8_EENSO_5list3INSO_5valueIPSI_EENS_3argILi1EEENSX_ILi2EEEEEEEEEEEEENS1_7scannerIS8_NS1_16scanner_policiesINS1_16iteration_policyENS1_12match_policyENS1_13action_policyEEEEESC_E16do_parse_virtualERKS1B_
_ZNK5boost6spirit7classic4impl15concrete_parserINS1_8sequenceINS4_INS4_INS4_INS1_12inhibit_caseINS1_6strlitIPKcEEEENS1_4ruleINS1_5nil_tESC_SC_EEEENS1_16assertive_parserIN4rcss4conf6Parser6ErrorsESD_EEEESD_EENSF_ISJ_NS1_6actionISD_NS_3_bi6bind_tIbNS_4_mfi3mf2IbSI_S8_S8_EENSO_5list3INSO_5valueIPSI_EENS_3argILi1EEENSX_ILi2EEEEEEEEEEEEENS1_7scannerIS8_NS1_16scanner_policiesINS1_16iteration_policyENS1_12match_policyENS1_13action_policyEEEEESC_E5cloneEv
_ZNK5boost6spirit7classic4impl15concrete_parserINS1_8sequenceINS4_INS4_INS4_INS1_4ruleINS1_5nil_tES6_S6_EES7_EENS1_16assertive_parserIN4rcss4conf6Parser6ErrorsES7_EEEES7_EENS9_ISD_NS1_11alternativeINSH_INSH_INSH_INS1_6actionIS7_NS_3_bi6bind_tIbNS_4_mfi3mf1IbSC_bEENSJ_5list2INSJ_5valueIPSC_EENSP_IbEEEEEEEESV_EENSI_INS1_11real_parserIdNS1_27strict_real_parser_policiesIdEEEENSK_IbNSM_IbSC_dEENSO_ISR_NS_3argILi1EEEEEEEEEEENSI_INS1_10int_parserIiLi10ELj1ELin1EEENSK_IbNSM_IbSC_iEES14_EEEEEENSI_IS7_NSK_IbNSL_3mf2IbSC_PKcS1G_EENSJ_5list3ISR_S13_NS12_ILi2EEEEEEEEEEEEEEENS1_7scannerIS1G_NS1_16scanner_policiesINS1_16iteration_policyENS1_12match_policyENS1_13action_policyEEEEES6_E16do_parse_virtualERKS1W_
_ZNK5boost6spirit7classic4impl15concrete_parserINS1_8sequenceINS4_INS4_INS4_INS1_4ruleINS1_5nil_tES6_S6_EES7_EENS1_16assertive_parserIN4rcss4conf6Parser6ErrorsES7_EEEES7_EENS9_ISD_NS1_11alternativeINSH_INSH_INSH_INS1_6actionIS7_NS_3_bi6bind_tIbNS_4_mfi3mf1IbSC_bEENSJ_5list2INSJ_5valueIPSC_EENSP_IbEEEEEEEESV_EENSI_INS1_11real_parserIdNS1_27strict_real_parser_policiesIdEEEENSK_IbNSM_IbSC_dEENSO_ISR_NS_3argILi1EEEEEEEEEEENSI_INS1_10int_parserIiLi10ELj1ELin1EEENSK_IbNSM_IbSC_iEES14_EEEEEENSI_IS7_NSK_IbNSL_3mf2IbSC_PKcS1G_EENSJ_5list3ISR_S13_NS12_ILi2EEEEEEEEEEEEEEENS1_7scannerIS1G_NS1_16scanner_policiesINS1_16iteration_policyENS1_12match_policyENS1_13action_policyEEEEES6_E5cloneEv
_ZNK5boost6spirit7classic4impl16real_parser_implINS1_5matchIdEEdNS1_27strict_real_parser_policiesIdEEE10parse_mainINS1_7scannerIPKcNS1_16scanner_policiesINS1_16iteration_policyENS1_12match_policyENS1_13action_policyEEEEEEES5_RKT_
_ZNK5boost6spirit7classic4impl16uint_parser_implIdLi10ELj1ELin1EE5parseINS1_7scannerIPKcNS1_16scanner_policiesINS1_16iteration_policyENS1_12match_policyENS1_13action_policyEEEEEEENS1_13parser_resultIS4_T_E4typeERKSG_.isra.289
_ZNK5boost6spirit7classic4impl9rule_baseINS1_4ruleINS1_5nil_tES5_S5_EERKS6_S5_S5_S5_E5parseINS1_7scannerIPKcNS1_16scanner_policiesINS1_16iteration_policyENS1_12match_policyENS1_13action_policyEEEEEEENS1_13parser_resultIS6_T_E4typeERKSL_
_ZNK5boost6spirit7classic6actionINS1_10differenceINS1_4ruleINS1_5nil_tES5_S5_EENS1_12inhibit_caseINS1_6strlitIPKcEEEEEENS_3_bi6bind_tIvNS_4_mfi3mf2IvN4rcss4conf6ParserESA_SA_EENSE_5list3INSE_5valueIPSK_EENS_3argILi1EEENSQ_ILi2EEEEEEEE5parseINS1_7scannerISA_NS1_16scanner_policiesINS1_16iteration_policyENS1_12match_policyENS1_13action_policyEEEEEEENS1_13parser_resultISV_T_E4typeERKS15_
_ZNK5boost6spirit7classic6actionINS1_10differenceINS1_4ruleINS1_5nil_tES5_S5_EES6_EENS_3_bi6bind_tIbNS_4_mfi3mf2IbN4rcss4conf6ParserEPKcSG_EENS8_5list3INS8_5valueIPSE_EENS_3argILi1EEENSM_ILi2EEEEEEEE5parseINS1_7scannerISG_NS1_16scanner_policiesINS1_16iteration_policyENS1_12match_policyENS1_13action_policyEEEEEEENS1_13parser_resultISR_T_E4typeERKS11_
_ZNK5boost6spirit7classic6actionINS1_10int_parserIiLi10ELj1ELin1EEENS_3_bi6bind_tIbNS_4_mfi3mf1IbN4rcss4conf6ParserEiEENS5_5list2INS5_5valueIPSB_EENS_3argILi1EEEEEEEE5parseINS1_7scannerIPKcNS1_16scanner_policiesINS1_16iteration_policyENS1_12match_policyENS1_13action_policyEEEEEEENS1_13parser_resultISL_T_E4typeERKSX_
_ZNK5boost6spirit7classic6actionINS1_4ruleINS1_5nil_tES4_S4_EENS_3_bi6bind_tIbNS_4_mfi3mf1IbN4rcss4conf6ParserEbEENS6_5list2INS6_5valueIPSC_EENSF_IbEEEEEEE5parseINS1_7scannerIPKcNS1_16scanner_policiesINS1_16iteration_policyENS1_12match_policyENS1_13action_policyEEEEEEENS1_13parser_resultISL_T_E4typeERKSX_
_ZNK5boost6spirit7classic6actionINS1_4ruleINS1_5nil_tES4_S4_EENS_3_bi6bind_tIbNS_4_mfi3mf2IbN4rcss4conf6ParserEPKcSE_EENS6_5list3INS6_5valueIPSC_EENS_3argILi1EEENSK_ILi2EEEEEEEE5parseINS1_7scannerISE_NS1_16scanner_policiesINS1_16iteration_policyENS1_12match_policyENS1_13action_policyEEEEEEENS1_13parser_resultISP_T_E4typeERKSZ_
_ZNK5boost6spirit7classic6actionINS1_4ruleINS1_5nil_tES4_S4_EENS_3_bi6bind_tIvNS_4_mfi3mf2IvN4rcss4conf6ParserEPKcSE_EENS6_5list3INS6_5valueIPSC_EENS_3argILi1EEENSK_ILi2EEEEEEEE5parseINS1_7scannerISE_NS1_16scanner_policiesINS1_16iteration_policyENS1_12match_policyENS1_13action_policyEEEEEEENS1_13parser_resultISP_T_E4typeERKSZ_
_ZNK5boost6spirit7classic6strlitIPKcE5parseINS1_7scannerIS4_NS1_16scanner_policiesINS1_16iteration_policyENS1_12match_policyENS1_13action_policyEEEEEEENS1_13parser_resultIS5_T_E4typeERKSF_
_ZNK5boost6spirit7classic7scannerIPKcNS1_16scanner_policiesINS1_29inhibit_case_iteration_policyINS1_16iteration_policyEEENS1_12match_policyENS1_13action_policyEEEEppEv
_ZNK5boost6spirit7classic8optionalINS1_4ruleINS1_5nil_tES4_S4_EEE5parseINS1_7scannerIPKcNS1_16scanner_policiesINS1_16iteration_policyENS1_12match_policyENS1_13action_policyEEEEEEENS1_13parser_resultIS6_T_E4typeERKSI_
_ZNK5boost6spirit7classic8positiveINS1_5chsetIcEEE5parseINS1_7scannerIPKcNS1_16scanner_policiesINS1_16iteration_policyENS1_12match_policyENS1_13action_policyEEEEEEENS1_13parser_resultIS5_T_E4typeERKSH_
_ZNK5boost6spirit7classic8sequenceINS1_4ruleINS1_5nil_tES4_S4_EES5_E5parseINS1_7scannerIPKcNS1_16scanner_policiesINS1_16iteration_policyENS1_12match_policyENS1_13action_policyEEEEEEENS1_13parser_resultIS6_T_E4typeERKSI_
_ZNK5boost6spirit7classic8sequenceINS2_INS1_8optionalINS1_4ruleINS1_5nil_tES5_S5_EEEES7_EES6_E5parseINS1_7scannerIPKcNS1_16scanner_policiesINS1_16iteration_policyENS1_12match_policyENS1_13action_policyEEEEEEENS1_13parser_resultIS9_T_E4typeERKSL_
_ZNK5boost6system12system_error4whatEv
_ZNKSt12__basic_fileIcE7is_openEv
_ZNKSt13runtime_error4whatEv
_ZNKSt19istreambuf_iteratorIcSt11char_traitsIcEE6_M_getEv
_ZNKSt7__cxx1112basic_stringIcSt11char_traitsIcESaIcEE13find_first_ofEPKcm
_ZNKSt7__cxx1112basic_stringIcSt11char_traitsIcESaIcEE4findEPKcm
_ZNKSt7__cxx1112basic_stringIcSt11char_traitsIcESaIcEE6substrEmm
_ZNKSt7__cxx1112basic_stringIcSt11char_traitsIcESaIcEE7compareEPKc
_ZNKSt7__cxx1112basic_stringIcSt11char_traitsIcESaIcEE7compareERKS4_
_ZNKSt7__cxx1115basic_stringbufIcSt11char_traitsIcESaIcEE3strEv
_ZNKSt9basic_iosIcSt11char_traitsIcEEcvPvEv
_ZNKSt9exception4whatEv
_ZNSdC2EPSt15basic_streambufIcSt11char_traitsIcEE
_ZNSdD2Ev
_ZNSi4readEPcl
_ZNSiC1EPSt15basic_streambufIcSt11char_traitsIcEE
_ZNSiC2EPSt15basic_streambufIcSt11char_traitsIcEE
_ZNSiD1Ev
_ZNSiD2Ev
_ZNSo5flushEv
_ZNSo5writeEPKcl
_ZNSo9_M_insertIPKvEERSoT_
_ZNSo9_M_insertIdEERSoT_
_ZNSo9_M_insertImEERSoT_
_ZNSoC1EPSt15basic_streambufIcSt11char_traitsIcEE
_ZNSoC2EPSt15basic_streambufIcSt11char_traitsIcEE
_ZNSoD1Ev
_ZNSoD2Ev
_ZNSolsEPKv
_ZNSolsEd
_ZNSolsEi
_ZNSt11_Deque_baseIN4rcss5clang10MsgBuilder8ItemTypeESaIS3_EE17_M_initialize_mapEm
_ZNSt11__copy_moveILb0ELb0ESt26random_access_iterator_tagE8__copy_mIPN4rcss5clang4UNumES6_EET0_T_S8_S7_
_ZNSt12_Destroy_auxILb0EE9__destroyIPN4rcss5clang4UNumEEEvT_S6_
_ZNSt12_Vector_baseIN4rcss5clang4UNumESaIS2_EE13_M_deallocateEPS2_m.isra.24
_ZNSt12_Vector_baseIN4rcss5clang4UNumESaIS2_EE13_M_deallocateEPS2_m.isra.54
_ZNSt13runtime_errorD2Ev
_ZNSt14basic_ifstreamIcSt11char_traitsIcEE5closeEv
_ZNSt14basic_ifstreamIcSt11char_traitsIcEEC2EPKcSt13_Ios_Openmode
_ZNSt14basic_ifstreamIcSt11char_traitsIcEED2Ev
_ZNSt14basic_ofstreamIcSt11char_traitsIcEE5closeEv
_ZNSt14basic_ofstreamIcSt11char_traitsIcEEC2EPKcSt13_Ios_Openmode
_ZNSt14basic_ofstreamIcSt11char_traitsIcEED2Ev
_ZNSt15_Deque_iteratorIN4rcss5clang10MsgBuilder8ItemTypeERKS3_PS4_EmmEv
_ZNSt15basic_streambufIcSt11char_traitsIcEE5imbueERKSt6locale
_ZNSt15basic_streambufIcSt11char_traitsIcEE5sgetcEv
_ZNSt15basic_streambufIcSt11char_traitsIcEE5sputcEc
_ZNSt15basic_streambufIcSt11char_traitsIcEE5uflowEv
_ZNSt15basic_streambufIcSt11char_traitsIcEE6sbumpcEv
_ZNSt15basic_streambufIcSt11char_traitsIcEE6setbufEPcl
_ZNSt15basic_streambufIcSt11char_traitsIcEE6xsgetnEPcl
_ZNSt15basic_streambufIcSt11char_traitsIcEE6xsputnEPKcl
_ZNSt15basic_streambufIcSt11char_traitsIcEE7seekoffElSt12_Ios_SeekdirSt13_Ios_Openmode
_ZNSt15basic_streambufIcSt11char_traitsIcEE7seekposESt4fposI11__mbstate_tESt13_Ios_Openmode
_ZNSt15basic_streambufIcSt11char_traitsIcEE8in_availEv
_ZNSt15basic_streambufIcSt11char_traitsIcEE9pbackfailEi
_ZNSt15basic_streambufIcSt11char_traitsIcEE9showmanycEv
_ZNSt15basic_streambufIcSt11char_traitsIcEEC2Ev
_ZNSt15basic_streambufIcSt11char_traitsIcEED2Ev
_ZNSt20__uninitialized_copyILb0EE13__uninit_copyIN9__gnu_cxx17__normal_iteratorIPKN4rcss5clang4UNumESt6vectorIS6_SaIS6_EEEEPS6_EET0_T_SF_SE_
_ZNSt20__uninitialized_copyILb0EE13__uninit_copyIPN4rcss5clang4UNumES5_EET0_T_S7_S6_
_ZNSt5dequeIN4rcss5clang10MsgBuilder8ItemTypeESaIS3_EE16_M_push_back_auxERKS3_
_ZNSt5dequeIN4rcss5clang10MsgBuilder8ItemTypeESaIS3_EE4backEv
_ZNSt5dequeIN4rcss5clang10MsgBuilder8ItemTypeESaIS3_EE8pop_backEv
_ZNSt5dequeIN4rcss5clang10MsgBuilder8ItemTypeESaIS3_EE9push_backERKS3_
_ZNSt5dequeIN4rcss5clang10MsgBuilder8ItemTypeESaIS3_EEC1ERKS5_
_ZNSt5dequeIN4rcss5clang10MsgBuilder8ItemTypeESaIS3_EEC2ERKS5_
_ZNSt5dequeIN4rcss5clang10MsgBuilder8ItemTypeESaIS3_EEC5ERKS5_
_ZNSt5dequeIN4rcss5clang10MsgBuilder8ItemTypeESaIS3_EED1Ev
_ZNSt5dequeIN4rcss5clang10MsgBuilder8ItemTypeESaIS3_EED2Ev
_ZNSt5dequeIN4rcss5clang10MsgBuilder8ItemTypeESaIS3_EED5Ev
_ZNSt6bitsetILm256EE3setEmb
_ZNSt6vectorIN4rcss5clang4UNumESaIS2_EE13_M_insert_auxEN9__gnu_cxx17__normal_iteratorIPS2_S4_EERKS2_
_ZNSt6vectorIN4rcss5clang4UNumESaIS2_EE5clearEv
_ZNSt6vectorIN4rcss5clang4UNumESaIS2_EE9push_backERKS2_
_ZNSt6vectorIN4rcss5clang4UNumESaIS2_EEC1ERKS4_
_ZNSt6vectorIN4rcss5clang4UNumESaIS2_EEC2ERKS4_
_ZNSt6vectorIN4rcss5clang4UNumESaIS2_EEC5ERKS4_
_ZNSt6vectorIN4rcss5clang4UNumESaIS2_EED1Ev
_ZNSt6vectorIN4rcss5clang4UNumESaIS2_EED2Ev
_ZNSt6vectorIN4rcss5clang4UNumESaIS2_EED5Ev
_ZNSt6vectorIN4rcss5clang4UNumESaIS2_EEaSERKS4_
_ZNSt7__cxx1110_List_baseIN4rcss4conf6Parser11StreamStateESaIS4_EE8_M_clearEv
_ZNSt7__cxx1110_List_baseIN4rcss5clang13ActivateRulesESaIS3_EE8_M_clearEv
_ZNSt7__cxx1110_List_baseINS_12basic_stringIcSt11char_traitsIcESaIcEEESaIS5_EE8_M_clearEv
_ZNSt7__cxx1110_List_baseIPN4rcss4conf13StatusHandlerESaIS4_EE8_M_clearEv
_ZNSt7__cxx1110_List_baseIPN4rcss4conf7BuilderESaIS4_EE8_M_clearEv
_ZNSt7__cxx1110_List_baseIPN4rcss5clang3DefESaIS4_EE11_M_get_nodeEv.isra.150
_ZNSt7__cxx1110_List_baseIPN4rcss5clang3DefESaIS4_EE8_M_clearEv
_ZNSt7__cxx1110_List_baseIPN4rcss5clang3DirESaIS4_EE11_M_get_nodeEv.isra.160
_ZNSt7__cxx1110_List_baseIPN4rcss5clang3DirESaIS4_EE8_M_clearEv
_ZNSt7__cxx1110_List_baseIPN4rcss5clang4CondESaIS4_EE11_M_get_nodeEv.isra.164
_ZNSt7__cxx1110_List_baseIPN4rcss5clang4CondESaIS4_EE8_M_clearEv
_ZNSt7__cxx1110_List_baseIPN4rcss5clang4RuleESaIS4_EE11_M_get_nodeEv.isra.178
_ZNSt7__cxx1110_List_baseIPN4rcss5clang4RuleESaIS4_EE8_M_clearEv
_ZNSt7__cxx1110_List_baseIPN4rcss5clang5TokenESaIS4_EE11_M_get_nodeEv.isra.155
_ZNSt7__cxx1110_List_baseIPN4rcss5clang5TokenESaIS4_EE8_M_clearEv
_ZNSt7__cxx1110_List_baseIPN4rcss5clang6ActionESaIS4_EE11_M_get_nodeEv.isra.133
_ZNSt7__cxx1110_List_baseIPN4rcss5clang6ActionESaIS4_EE8_M_clearEv
_ZNSt7__cxx1110_List_baseIPN4rcss5clang6RegionESaIS4_EE11_M_get_nodeEv.isra.169
_ZNSt7__cxx1110_List_baseIPN4rcss5clang6RegionESaIS4_EE8_M_clearEv
_ZNSt7__cxx1110_List_baseIPN4rcss5clang9MetaTokenESaIS4_EE11_M_get_nodeEv.isra.145
_ZNSt7__cxx1110_List_baseIPN4rcss5clang9MetaTokenESaIS4_EE8_M_clearEv
_ZNSt7__cxx1112basic_stringIcSt11char_traitsIcESaIcEE10_M_disposeEv
_ZNSt7__cxx1112basic_stringIcSt11char_traitsIcESaIcEE12_M_constructIN9__gnu_cxx17__normal_iteratorIPKcS4_EEEEvT_SB_
_ZNSt7__cxx1112basic_stringIcSt11char_traitsIcESaIcEE12_M_constructIN9__gnu_cxx17__normal_iteratorIPKcS4_EEEEvT_SB_St20forward_iterator_tag.isra.75
_ZNSt7__cxx1112basic_stringIcSt11char_traitsIcESaIcEE12_M_constructIN9__gnu_cxx17__normal_iteratorIPcS4_EEEEvT_SA_St20forward_iterator_tag.isra.132
_ZNSt7__cxx1112basic_stringIcSt11char_traitsIcESaIcEE12_M_constructIPKcEEvT_S8_St20forward_iterator_tag.isra.101
_ZNSt7__cxx1112basic_stringIcSt11char_traitsIcESaIcEE13_S_copy_charsEPcPKcS7_
_ZNSt7__cxx1112basic_stringIcSt11char_traitsIcESaIcEE13_S_copy_charsEPcS5_S5_
_ZNSt7__cxx1112basic_stringIcSt11char_traitsIcESaIcEE6appendEPKc
_ZNSt7__cxx1112basic_stringIcSt11char_traitsIcESaIcEE6appendEPKcm
_ZNSt7__cxx1112basic_stringIcSt11char_traitsIcESaIcEE6appendERKS4_
_ZNSt7__cxx1112basic_stringIcSt11char_traitsIcESaIcEE7replaceEmmPKc
_ZNSt7__cxx1112basic_stringIcSt11char_traitsIcESaIcEE7reserveEm
_ZNSt7__cxx1112basic_stringIcSt11char_traitsIcESaIcEE9_M_assignERKS4_
_ZNSt7__cxx1112basic_stringIcSt11char_traitsIcESaIcEE9_M_createERmm
_ZNSt7__cxx1112basic_stringIcSt11char_traitsIcESaIcEE9push_backEc
_ZNSt7__cxx1112basic_stringIcSt11char_traitsIcESaIcEEC1ERKS4_
_ZNSt7__cxx1112basic_stringIcSt11char_traitsIcESaIcEEC2EPKcRKS3_.isra.103
_ZNSt7__cxx1112basic_stringIcSt11char_traitsIcESaIcEEC2EPKcRKS3_.isra.29
_ZNSt7__cxx1112basic_stringIcSt11char_traitsIcESaIcEEC2EPKcRKS3_.isra.35.constprop.48
_ZNSt7__cxx1112basic_stringIcSt11char_traitsIcESaIcEEC2EPKcRKS3_.isra.87
_ZNSt7__cxx1112basic_stringIcSt11char_traitsIcESaIcEEaSEPKc
_ZNSt7__cxx1112basic_stringIcSt11char_traitsIcESaIcEEpLEPKc
_ZNSt7__cxx1112basic_stringIcSt11char_traitsIcESaIcEEpLERKS4_
_ZNSt7__cxx1118basic_stringstreamIcSt11char_traitsIcESaIcEEC1ESt13_Ios_Openmode
_ZNSt7__cxx1118basic_stringstreamIcSt11char_traitsIcESaIcEED1Ev
_ZNSt7__cxx1119basic_istringstreamIcSt11char_traitsIcESaIcEEC1ERKNS_12basic_stringIcS2_S3_EESt13_Ios_Openmode
_ZNSt7__cxx1119basic_istringstreamIcSt11char_traitsIcESaIcEED1Ev
_ZNSt7__cxx1119basic_ostringstreamIcSt11char_traitsIcESaIcEEC1ESt13_Ios_Openmode
_ZNSt7__cxx1119basic_ostringstreamIcSt11char_traitsIcESaIcEED1Ev
_ZNSt7__cxx114listIN4rcss5clang13ActivateRulesESaIS3_EEC1ERKS5_
_ZNSt7__cxx114listIN4rcss5clang13ActivateRulesESaIS3_EEC2ERKS5_
_ZNSt7__cxx114listIN4rcss5clang13ActivateRulesESaIS3_EEC5ERKS5_
_ZNSt7__cxx114listINS_12basic_stringIcSt11char_traitsIcESaIcEEESaIS5_EE10push_frontERKS5_
_ZNSt7__cxx114listINS_12basic_stringIcSt11char_traitsIcESaIcEEESaIS5_EE14_M_create_nodeERKS5_.isra.128
_ZNSt7__cxx114listINS_12basic_stringIcSt11char_traitsIcESaIcEEESaIS5_EE22_M_initialize_dispatchISt20_List_const_iteratorIS5_EEEvT_SB_St12__false_type.isra.76
_ZNSt7__cxx114listINS_12basic_stringIcSt11char_traitsIcESaIcEEESaIS5_EEC1ERKS7_
_ZNSt7__cxx114listINS_12basic_stringIcSt11char_traitsIcESaIcEEESaIS5_EEC2ERKS7_
_ZNSt7__cxx114listINS_12basic_stringIcSt11char_traitsIcESaIcEEESaIS5_EEC5ERKS7_
_ZNSt7__cxx114listINS_12basic_stringIcSt11char_traitsIcESaIcEEESaIS5_EEaSERKS7_
_ZNSt7__cxx114listIPN4rcss5clang4CondESaIS4_EE9_M_insertESt14_List_iteratorIS4_ERKS4_
_ZNSt7__cxx114listIPN4rcss5clang4CondESaIS4_EE9push_backERKS4_
_ZNSt7__cxx114listIPN4rcss5clang4CondESaIS4_EEC1ERKS6_
_ZNSt7__cxx114listIPN4rcss5clang4CondESaIS4_EEC2ERKS6_
_ZNSt7__cxx114listIPN4rcss5clang4CondESaIS4_EEC5ERKS6_
_ZNSt7__cxx114listIPN4rcss5clang6ActionESaIS4_EEC1ERKS6_
_ZNSt7__cxx114listIPN4rcss5clang6ActionESaIS4_EEC2ERKS6_
_ZNSt7__cxx114listIPN4rcss5clang6ActionESaIS4_EEC5ERKS6_
_ZNSt8_Rb_treeINSt7__cxx1112basic_stringIcSt11char_traitsIcESaIcEEESt4pairIKS5_N4rcss4conf7Builder9ParamInfoIS5_EEESt10_Select1stISD_ESt4lessIS5_ESaISD_EE4findERS7_
_ZNSt8_Rb_treeINSt7__cxx1112basic_stringIcSt11char_traitsIcESaIcEEESt4pairIKS5_N4rcss4conf7Builder9ParamInfoIS5_EEESt10_Select1stISD_ESt4lessIS5_ESaISD_EE8_M_eraseEPSt13_Rb_tree_nodeISD_E
_ZNSt8_Rb_treeINSt7__cxx1112basic_stringIcSt11char_traitsIcESaIcEEESt4pairIKS5_N4rcss4conf7Builder9ParamInfoIbEEESt10_Select1stISD_ESt4lessIS5_ESaISD_EE4findERS7_
_ZNSt8_Rb_treeINSt7__cxx1112basic_stringIcSt11char_traitsIcESaIcEEESt4pairIKS5_N4rcss4conf7Builder9ParamInfoIbEEESt10_Select1stISD_ESt4lessIS5_ESaISD_EE8_M_eraseEPSt13_Rb_tree_nodeISD_E
_ZNSt8_Rb_treeINSt7__cxx1112basic_stringIcSt11char_traitsIcESaIcEEESt4pairIKS5_N4rcss4conf7Builder9ParamInfoIdEEESt10_Select1stISD_ESt4lessIS5_ESaISD_EE4findERS7_
_ZNSt8_Rb_treeINSt7__cxx1112basic_stringIcSt11char_traitsIcESaIcEEESt4pairIKS5_N4rcss4conf7Builder9ParamInfoIdEEESt10_Select1stISD_ESt4lessIS5_ESaISD_EE8_M_eraseEPSt13_Rb_tree_nodeISD_E
_ZNSt8_Rb_treeINSt7__cxx1112basic_stringIcSt11char_traitsIcESaIcEEESt4pairIKS5_N4rcss4conf7Builder9ParamInfoIiEEESt10_Select1stISD_ESt4lessIS5_ESaISD_EE4findERS7_
_ZNSt8_Rb_treeINSt7__cxx1112basic_stringIcSt11char_traitsIcESaIcEEESt4pairIKS5_N4rcss4conf7Builder9ParamInfoIiEEESt10_Select1stISD_ESt4lessIS5_ESaISD_EE8_M_eraseEPSt13_Rb_tree_nodeISD_E
_ZNSt8__detail15_List_node_base11_M_transferEPS0_S1_
_ZNSt8__detail15_List_node_base7_M_hookEPS0_
_ZNSt8__detail15_List_node_base9_M_unhookEv
_ZNSt8auto_ptrIN4rcss5clang10RuleIDListEED1Ev
_ZNSt8auto_ptrIN4rcss5clang10RuleIDListEED2Ev
_ZNSt8auto_ptrIN4rcss5clang10RuleIDListEED5Ev
_ZNSt8auto_ptrIN4rcss5clang13ActivateRulesEED1Ev
_ZNSt8auto_ptrIN4rcss5clang13ActivateRulesEED2Ev
_ZNSt8auto_ptrIN4rcss5clang13ActivateRulesEED5Ev
_ZNSt8auto_ptrIN4rcss5clang3DefEED1Ev
_ZNSt8auto_ptrIN4rcss5clang3DefEED2Ev
_ZNSt8auto_ptrIN4rcss5clang3DefEED5Ev
_ZNSt8auto_ptrIN4rcss5clang3DirEED1Ev
_ZNSt8auto_ptrIN4rcss5clang3DirEED2Ev
_ZNSt8auto_ptrIN4rcss5clang3DirEED5Ev
_ZNSt8auto_ptrIN4rcss5clang3MsgEED1Ev
_ZNSt8auto_ptrIN4rcss5clang3MsgEED2Ev
_ZNSt8auto_ptrIN4rcss5clang3MsgEED5Ev
_ZNSt8auto_ptrIN4rcss5clang4CondEED1Ev
_ZNSt8auto_ptrIN4rcss5clang4CondEED2Ev
_ZNSt8auto_ptrIN4rcss5clang4CondEED5Ev
_ZNSt8auto_ptrIN4rcss5clang4RuleEED1Ev
_ZNSt8auto_ptrIN4rcss5clang4RuleEED2Ev
_ZNSt8auto_ptrIN4rcss5clang4RuleEED5Ev
_ZNSt8auto_ptrIN4rcss5clang4UNumEED1Ev
_ZNSt8auto_ptrIN4rcss5clang4UNumEED2Ev
_ZNSt8auto_ptrIN4rcss5clang4UNumEED5Ev
_ZNSt8auto_ptrIN4rcss5clang5PointEED1Ev
_ZNSt8auto_ptrIN4rcss5clang5PointEED2Ev
_ZNSt8auto_ptrIN4rcss5clang5PointEED5Ev
_ZNSt8auto_ptrIN4rcss5clang5PointEEaSERS3_
_ZNSt8auto_ptrIN4rcss5clang5PointEEaSESt12auto_ptr_refIS2_E
_ZNSt8auto_ptrIN4rcss5clang5TokenEED1Ev
_ZNSt8auto_ptrIN4rcss5clang5TokenEED2Ev
_ZNSt8auto_ptrIN4rcss5clang5TokenEED5Ev
_ZNSt8auto_ptrIN4rcss5clang6ActionEED1Ev
_ZNSt8auto_ptrIN4rcss5clang6ActionEED2Ev
_ZNSt8auto_ptrIN4rcss5clang6ActionEED5Ev
_ZNSt8auto_ptrIN4rcss5clang6CondOrEED1Ev
_ZNSt8auto_ptrIN4rcss5clang6CondOrEED2Ev
_ZNSt8auto_ptrIN4rcss5clang6CondOrEED5Ev
_ZNSt8auto_ptrIN4rcss5clang6RegionEED1Ev
_ZNSt8auto_ptrIN4rcss5clang6RegionEED2Ev
_ZNSt8auto_ptrIN4rcss5clang6RegionEED5Ev
_ZNSt8auto_ptrIN4rcss5clang6RegionEEaSESt12auto_ptr_refIS2_E
_ZNSt8auto_ptrIN4rcss5clang7CondAndEED1Ev
_ZNSt8auto_ptrIN4rcss5clang7CondAndEED2Ev
_ZNSt8auto_ptrIN4rcss5clang7CondAndEED5Ev
_ZNSt8auto_ptrIN4rcss5clang7UNumSetEED1Ev
_ZNSt8auto_ptrIN4rcss5clang7UNumSetEED2Ev
_ZNSt8auto_ptrIN4rcss5clang7UNumSetEED5Ev
_ZNSt8auto_ptrIN4rcss5clang8RegUnionEED1Ev
_ZNSt8auto_ptrIN4rcss5clang8RegUnionEED2Ev
_ZNSt8auto_ptrIN4rcss5clang8RegUnionEED5Ev
_ZNSt8auto_ptrIN4rcss5clang9MetaTokenEED1Ev
_ZNSt8auto_ptrIN4rcss5clang9MetaTokenEED2Ev
_ZNSt8auto_ptrIN4rcss5clang9MetaTokenEED5Ev
_ZNSt8auto_ptrINSt7__cxx1112basic_stringIcSt11char_traitsIcESaIcEEEED1Ev
_ZNSt8auto_ptrINSt7__cxx1112basic_stringIcSt11char_traitsIcESaIcEEEED2Ev
_ZNSt8auto_ptrINSt7__cxx1112basic_stringIcSt11char_traitsIcESaIcEEEED5Ev
_ZNSt8auto_ptrINSt7__cxx114listIPN4rcss5clang4CondESaIS5_EEEED1Ev
_ZNSt8auto_ptrINSt7__cxx114listIPN4rcss5clang4CondESaIS5_EEEED2Ev
_ZNSt8auto_ptrINSt7__cxx114listIPN4rcss5clang4CondESaIS5_EEEED5Ev
_ZNSt8ios_base4InitC1Ev
_ZNSt8ios_base4InitD1Ev
_ZNSt9basic_iosIcSt11char_traitsIcEE4initEPSt15basic_streambufIcS1_E
_ZNSt9basic_iosIcSt11char_traitsIcEE5clearESt12_Ios_Iostate
_ZNSt9basic_iosIcSt11char_traitsIcEE5rdbufEPSt15basic_streambufIcS1_E
_ZNSt9basic_iosIcSt11char_traitsIcEE8setstateESt12_Ios_Iostate
_ZNSt9basic_iosIcSt11char_traitsIcEEC2Ev
_ZNSt9basic_iosIcSt11char_traitsIcEED2Ev
_ZNSt9exceptionD2Ev
_ZSt17__throw_bad_allocv
_ZSt18_Rb_tree_incrementPSt18_Rb_tree_node_base
_ZSt19__throw_logic_errorPKc
_ZSt24__throw_out_of_range_fmtPKcz
_ZSt3cin
_ZSt4cerr
_ZSt4cout
_ZSt4endlIcSt11char_traitsIcEERSt13basic_ostreamIT_T0_ES6_
_ZSt9__find_ifIN9__gnu_cxx17__normal_iteratorIPcNSt7__cxx1112basic_stringIcSt11char_traitsIcESaIcEEEEENS0_5__ops16_Iter_equals_valIKcEEET_SE_SE_T0_St26random_access_iterator_tag
_ZStL8__ioinit
_ZSteqIcEN9__gnu_cxx11__enable_ifIXsrSt9__is_charIT_E7__valueEbE6__typeERKNSt7__cxx1112basic_stringIS3_St11char_traitsIS3_ESaIS3_EEESE_
_ZStlsISt11char_traitsIcEERSt13basic_ostreamIcT_ES5_PKc
_ZStlsISt11char_traitsIcEERSt13basic_ostreamIcT_ES5_c
_ZStlsIcSt11char_traitsIcEERSt13basic_ostreamIT_T0_ES6_St8_SetfillIS3_E
_ZStlsIcSt11char_traitsIcESaIcEERSt13basic_ostreamIT_T0_ES7_RKNSt7__cxx1112basic_stringIS4_S5_T1_EE
_ZStltIcSt11char_traitsIcESaIcEEbRKNSt7__cxx1112basic_stringIT_T0_T1_EESA_
_ZStplIcSt11char_traitsIcESaIcEENSt7__cxx1112basic_stringIT_T0_T1_EEPKS5_RKS8_
_ZStplIcSt11char_traitsIcESaIcEENSt7__cxx1112basic_stringIT_T0_T1_EERKS8_PKS5_
_ZStplIcSt11char_traitsIcESaIcEENSt7__cxx1112basic_stringIT_T0_T1_EERKS8_SA_
_ZTCN4rcss2gz10gzifstreamE0_Si
_ZTCN4rcss2gz10gzofstreamE0_So
_ZTCN4rcss2gz8gzstreamE0_Sd
_ZTCN4rcss2gz8gzstreamE0_Si
_ZTCN4rcss2gz8gzstreamE16_So
_ZTCN4rcss2gz9gzistreamE0_Si
_ZTCN4rcss2gz9gzostreamE0_So
_ZTCN5boost10filesystem14basic_ifstreamIcSt11char_traitsIcEEE0_Si
_ZTCN5boost10filesystem14basic_ifstreamIcSt11char_traitsIcEEE0_St14basic_ifstreamIcS3_E
_ZTCN5boost10filesystem14basic_ofstreamIcSt11char_traitsIcEEE0_So
_ZTCN5boost10filesystem14basic_ofstreamIcSt11char_traitsIcEEE0_St14basic_ofstreamIcS3_E
_ZTI14RCSSCLangLexer
_ZTI18RCSSCLangFLexLexer
_ZTI9FlexLexer
_ZTIN4rcss2gz10gzifstreamE
_ZTIN4rcss2gz10gzofstreamE
_ZTIN4rcss2gz11gzstreambufE
_ZTIN4rcss2gz8gzstreamE
_ZTIN4rcss2gz9gzfilebufE
_ZTIN4rcss2gz9gzistreamE
_ZTIN4rcss2gz9gzostreamE
_ZTIN4rcss3net15SocketStreamBufE
_ZTIN4rcss3net6SocketE
_ZTIN4rcss3net9TCPSocketE
_ZTIN4rcss3net9UDPSocketE
_ZTIN4rcss4conf13StatusHandlerE
_ZTIN4rcss4conf19StreamStatusHandlerE
_ZTIN4rcss4conf6ParserE
_ZTIN4rcss4conf7BuilderE
_ZTIN4rcss4util7NullErrE
_ZTIN4rcss5clang10ActDribbleE
_ZTIN4rcss5clang10ActHetTypeE
_ZTIN4rcss5clang10ActPassRegE
_ZTIN4rcss5clang10BuilderErrE
_ZTIN4rcss5clang10IDListRuleE
_ZTIN4rcss5clang10MsgBuilderE
_ZTIN4rcss5clang10NestedRuleE
_ZTIN4rcss5clang10PointArithE
_ZTIN4rcss5clang10SimpleRuleE
_ZTIN4rcss5clang11ActPassUNumE
_ZTIN4rcss5clang11CondBallPosE
_ZTIN4rcss5clang11CondOppGoalE
_ZTIN4rcss5clang11CondOurGoalE
_ZTIN4rcss5clang11FreeformMsgE
_ZTIN4rcss5clang11PointPlayerE
_ZTIN4rcss5clang11PointSimpleE
_ZTIN4rcss5clang12ActBallToRegE
_ZTIN4rcss5clang12ActInterceptE
_ZTIN4rcss5clang12CondGoalDiffE
_ZTIN4rcss5clang12CondPlayModeE
_ZTIN4rcss5clang12MetaTokenVerE
_ZTIN4rcss5clang13CondBallOwnerE
_ZTIN4rcss5clang13CondPlayerPosE
_ZTIN4rcss5clang14ActMarkLineRegE
_ZTIN4rcss5clang15ActBallToPlayerE
_ZTIN4rcss5clang15ActOffsidesLineE
_ZTIN4rcss5clang17ActMarkLinePlayerE
_ZTIN4rcss5clang3DefE
_ZTIN4rcss5clang3DirE
_ZTIN4rcss5clang3MsgE
_ZTIN4rcss5clang4CondE
_ZTIN4rcss5clang4RuleE
_ZTIN4rcss5clang5PointE
_ZTIN4rcss5clang5TokenE
_ZTIN4rcss5clang6ActPosE
_ZTIN4rcss5clang6ActionE
_ZTIN4rcss5clang6CondOrE
_ZTIN4rcss5clang6DefActE
_ZTIN4rcss5clang6DefDirE
_ZTIN4rcss5clang6DefRegE
_ZTIN4rcss5clang6DelMsgE
_ZTIN4rcss5clang6ParserE
_ZTIN4rcss5clang6RegArcE
_ZTIN4rcss5clang6RegRecE
_ZTIN4rcss5clang6RegTriE
_ZTIN4rcss5clang6RegionE
_ZTIN4rcss5clang7ActHoldE
_ZTIN4rcss5clang7ActHomeE
_ZTIN4rcss5clang7ActMarkE
_ZTIN4rcss5clang7BuilderE
_ZTIN4rcss5clang7CondAndE
_ZTIN4rcss5clang7CondNotE
_ZTIN4rcss5clang7DefCondE
_ZTIN4rcss5clang7DefRuleE
_ZTIN4rcss5clang7DirCommE
_ZTIN4rcss5clang7InfoMsgE
_ZTIN4rcss5clang7MetaMsgE
_ZTIN4rcss5clang7RegNullE
_ZTIN4rcss5clang7RegQuadE
_ZTIN4rcss5clang7RuleMsgE
_ZTIN4rcss5clang7TokRuleE
_ZTIN4rcss5clang8ActClearE
_ZTIN4rcss5clang8ActNamedE
_ZTIN4rcss5clang8ActShootE
_ZTIN4rcss5clang8CondBoolE
_ZTIN4rcss5clang8CondCompIiEE
_ZTIN4rcss5clang8CondRuleE
_ZTIN4rcss5clang8CondTimeE
_ZTIN4rcss5clang8CondUNumE
_ZTIN4rcss5clang8DirNamedE
_ZTIN4rcss5clang8PointRelE
_ZTIN4rcss5clang8RegNamedE
_ZTIN4rcss5clang8RegPointE
_ZTIN4rcss5clang8RegUnionE
_ZTIN4rcss5clang8TokClearE
_ZTIN4rcss5clang9ActTackleE
_ZTIN4rcss5clang9AdviceMsgE
_ZTIN4rcss5clang9CondNamedE
_ZTIN4rcss5clang9DefineMsgE
_ZTIN4rcss5clang9MetaTokenE
_ZTIN4rcss5clang9PointBallE
_ZTIN4rcss5clang9UnsuppMsgE
_ZTIN4rcss6ParserE
_ZTIN5boost10filesystem14basic_ifstreamIcSt11char_traitsIcEEE
_ZTIN5boost10filesystem14basic_ofstreamIcSt11char_traitsIcEEE
_ZTIN5boost16exception_detail10clone_baseE
_ZTIN5boost16exception_detail10clone_implINS0_19error_info_injectorINS_6spirit7classic12parser_errorIN4rcss4conf6Parser6ErrorsEPKcEEEEEE
_ZTIN5boost16exception_detail19error_info_injectorINS_6spirit7classic12parser_errorIN4rcss4conf6Parser6ErrorsEPKcEEEE
_ZTIN5boost6detail15sp_counted_baseE
_ZTIN5boost6detail17sp_counted_impl_pIN4rcss2gz16gzstreambuf_implEEE
_ZTIN5boost6detail17sp_counted_impl_pIN4rcss3net8AddrImplEEE
_ZTIN5boost6detail17sp_counted_impl_pINS_6spirit7classic11basic_chsetIcEEEE
_ZTIN5boost6detail18sp_counted_impl_pdIPiPFvS2_EEE
_ZTIN5boost6spirit7classic12parser_errorIN4rcss4conf6Parser6ErrorsEPKcEE
_ZTIN5boost6spirit7classic17parser_error_baseE
_ZTIN5boost6spirit7classic4impl15abstract_parserINS1_7scannerIPKcNS1_16scanner_policiesINS1_16iteration_policyENS1_12match_policyENS1_13action_policyEEEEENS1_5nil_tEEE
_ZTIN5boost6spirit7classic4impl15concrete_parserINS1_10eol_parserENS1_7scannerIPKcNS1_16scanner_policiesINS1_16iteration_policyENS1_12match_policyENS1_13action_policyEEEEENS1_5nil_tEEE
_ZTIN5boost6spirit7classic4impl15concrete_parserINS1_11alternativeINS1_12inhibit_caseINS1_6strlitIPKcEEEESA_EENS1_7scannerIS8_NS1_16scanner_policiesINS1_16iteration_policyENS1_12match_policyENS1_13action_policyEEEEENS1_5nil_tEEE
_ZTIN5boost6spirit7classic4impl15concrete_parserINS1_11alternativeINS1_4ruleINS1_5nil_tES6_S6_EENS1_8sequenceINS8_INS1_8optionalIS7_EESA_EES7_EEEENS1_7scannerIPKcNS1_16scanner_policiesINS1_16iteration_policyENS1_12match_policyENS1_13action_policyEEEEES6_EE
_ZTIN5boost6spirit7classic4impl15concrete_parserINS1_11alternativeINS1_6strlitIPKcEENS1_4ruleINS1_5nil_tESA_SA_EEEENS1_7scannerIS7_NS1_16scanner_policiesINS1_16iteration_policyENS1_12match_policyENS1_13action_policyEEEEESA_EE
_ZTIN5boost6spirit7classic4impl15concrete_parserINS1_11alternativeINS4_INS1_13confix_parserINS1_6strlitIPKcEENS1_11kleene_starINS1_14anychar_parserEEES9_NS1_21unary_parser_categoryENS1_10non_nestedENS1_9is_lexemeEEENS5_IS9_SC_NS4_INS1_10eol_parserENS1_10end_parserEEESD_SE_SF_EEEESK_EENS1_7scannerIS8_NS1_16scanner_policiesINS1_16iteration_policyENS1_12match_policyENS1_13action_policyEEEEENS1_5nil_tEEE
_ZTIN5boost6spirit7classic4impl15concrete_parserINS1_11alternativeINS4_INS1_4ruleINS1_5nil_tES6_S6_EENS1_6actionIS7_NS_3_bi6bind_tIvNS_4_mfi3mf2IvN4rcss4conf6ParserEPKcSH_EENS9_5list3INS9_5valueIPSF_EENS_3argILi1EEENSN_ILi2EEEEEEEEEEESS_EENS1_7scannerISH_NS1_16scanner_policiesINS1_16iteration_policyENS1_12match_policyENS1_13action_policyEEEEES6_EE
_ZTIN5boost6spirit7classic4impl15concrete_parserINS1_11alternativeINS4_INS1_4ruleINS1_5nil_tES6_S6_EES7_EES7_EENS1_7scannerIPKcNS1_16scanner_policiesINS1_16iteration_policyENS1_12match_policyENS1_13action_policyEEEEES6_EE
_ZTIN5boost6spirit7classic4impl15concrete_parserINS1_11alternativeINS4_INS4_INS1_6actionINS1_12inhibit_caseINS1_6strlitIPKcEEEENS_3_bi6bind_tIvNS_4_mfi3mf0IvN4rcss4conf6ParserEEENSC_5list1INSC_5valueIPSI_EEEEEEEENS5_INS1_8sequenceINSR_INS1_4ruleINS1_5nil_tEST_ST_EESU_EESB_EESP_EEEESU_EESU_EENS1_7scannerIS9_NS1_16scanner_policiesINS1_16iteration_policyENS1_12match_policyENS1_13action_policyEEEEEST_EE
_ZTIN5boost6spirit7classic4impl15concrete_parserINS1_11kleene_starINS1_4ruleINS1_5nil_tES6_S6_EEEENS1_7scannerIPKcNS1_16scanner_policiesINS1_16iteration_policyENS1_12match_policyENS1_13action_policyEEEEES6_EE
_ZTIN5boost6spirit7classic4impl15concrete_parserINS1_15fallback_parserIN4rcss4conf6Parser6ErrorsENS1_11kleene_starINS1_4ruleINS1_5nil_tESB_SB_EEEENS_3_bi6bind_tINS1_12error_statusISB_EEPFSH_PKS7_RKNS1_7scannerIPKcNS1_16scanner_policiesINS1_16iteration_policyENS1_12match_policyENS1_13action_policyEEEEERKNS1_12parser_errorIS8_SM_EEENSE_5list3INSE_5valueIPS7_EENS_3argILi1EEENS15_ILi2EEEEEEEEESS_SB_EE
_ZTIN5boost6spirit7classic4impl15concrete_parserINS1_19negated_char_parserINS1_5chlitIcEEEENS1_7scannerIPKcNS1_16scanner_policiesINS1_16iteration_policyENS1_12match_policyENS1_13action_policyEEEEENS1_5nil_tEEE
_ZTIN5boost6spirit7classic4impl15concrete_parserINS1_5chlitIcEENS1_7scannerIPKcNS1_16scanner_policiesINS1_16iteration_policyENS1_12match_policyENS1_13action_policyEEEEENS1_5nil_tEEE
_ZTIN5boost6spirit7classic4impl15concrete_parserINS1_6strlitIPKcEENS1_7scannerIS6_NS1_16scanner_policiesINS1_16iteration_policyENS1_12match_policyENS1_13action_policyEEEEENS1_5nil_tEEE
_ZTIN5boost6spirit7classic4impl15concrete_parserINS1_8positiveINS1_5chsetIcEEEENS1_7scannerIPKcNS1_16scanner_policiesINS1_16iteration_policyENS1_12match_policyENS1_13action_policyEEEEENS1_5nil_tEEE
_ZTIN5boost6spirit7classic4impl15concrete_parserINS1_8sequenceINS1_6actionINS1_10differenceINS1_4ruleINS1_5nil_tES8_S8_EES9_EENS_3_bi6bind_tIbNS_4_mfi3mf2IbN4rcss4conf6ParserEPKcSJ_EENSB_5list3INSB_5valueIPSH_EENS_3argILi1EEENSP_ILi2EEEEEEEEENS1_11kleene_starINS4_IS9_NS5_INS6_IS9_NS1_12inhibit_caseINS1_6strlitISJ_EEEEEENSC_IvNSE_IvSH_SJ_SJ_EESS_EEEEEEEEEENS1_7scannerISJ_NS1_16scanner_policiesINS1_16iteration_policyENS1_12match_policyENS1_13action_policyEEEEES8_EE
_ZTIN5boost6spirit7classic4impl15concrete_parserINS1_8sequenceINS1_8positiveINS1_5chsetIcEEEENS1_11kleene_starIS7_EEEENS1_7scannerIPKcNS1_16scanner_policiesINS1_16iteration_policyENS1_12match_policyENS1_13action_policyEEEEENS1_5nil_tEEE
_ZTIN5boost6spirit7classic4impl15concrete_parserINS1_8sequenceINS4_INS1_5chlitIcEENS1_11kleene_starINS1_4ruleINS1_5nil_tES9_S9_EEEEEES6_EENS1_7scannerIPKcNS1_16scanner_policiesINS1_16iteration_policyENS1_12match_policyENS1_13action_policyEEEEES9_EE
_ZTIN5boost6spirit7classic4impl15concrete_parserINS1_8sequenceINS4_INS1_6actionINS1_10differenceINS1_4ruleINS1_5nil_tES8_S8_EES9_EENS_3_bi6bind_tIbNS_4_mfi3mf2IbN4rcss4conf6ParserEPKcSJ_EENSB_5list3INSB_5valueIPSH_EENS_3argILi1EEENSP_ILi2EEEEEEEEENS4_INS1_16assertive_parserINSH_6ErrorsES9_EENS5_INS6_IS9_NS1_12inhibit_caseINS1_6strlitISJ_EEEEEENSC_IvNSE_IvSH_SJ_SJ_EESS_EEEEEEEENS1_11kleene_starINS4_IS9_S15_EEEEEENS1_7scannerISJ_NS1_16scanner_policiesINS1_16iteration_policyENS1_12match_policyENS1_13action_policyEEEEES8_EE
_ZTIN5boost6spirit7classic4impl15concrete_parserINS1_8sequenceINS4_INS4_INS4_INS1_12inhibit_caseINS1_6strlitIPKcEEEENS1_4ruleINS1_5nil_tESC_SC_EEEENS1_16assertive_parserIN4rcss4conf6Parser6ErrorsESD_EEEESD_EENSF_ISJ_NS1_6actionISD_NS_3_bi6bind_tIbNS_4_mfi3mf2IbSI_S8_S8_EENSO_5list3INSO_5valueIPSI_EENS_3argILi1EEENSX_ILi2EEEEEEEEEEEEENS1_7scannerIS8_NS1_16scanner_policiesINS1_16iteration_policyENS1_12match_policyENS1_13action_policyEEEEESC_EE
_ZTIN5boost6spirit7classic4impl15concrete_parserINS1_8sequenceINS4_INS4_INS4_INS1_4ruleINS1_5nil_tES6_S6_EES7_EENS1_16assertive_parserIN4rcss4conf6Parser6ErrorsES7_EEEES7_EENS9_ISD_NS1_11alternativeINSH_INSH_INSH_INS1_6actionIS7_NS_3_bi6bind_tIbNS_4_mfi3mf1IbSC_bEENSJ_5list2INSJ_5valueIPSC_EENSP_IbEEEEEEEESV_EENSI_INS1_11real_parserIdNS1_27strict_real_parser_policiesIdEEEENSK_IbNSM_IbSC_dEENSO_ISR_NS_3argILi1EEEEEEEEEEENSI_INS1_10int_parserIiLi10ELj1ELin1EEENSK_IbNSM_IbSC_iEES14_EEEEEENSI_IS7_NSK_IbNSL_3mf2IbSC_PKcS1G_EENSJ_5list3ISR_S13_NS12_ILi2EEEEEEEEEEEEEEENS1_7scannerIS1G_NS1_16scanner_policiesINS1_16iteration_policyENS1_12match_policyENS1_13action_policyEEEEES6_EE
_ZTIN5boost6system12system_errorE
_ZTIN5boost9exceptionE
_ZTISd
_ZTISi
_ZTISo
_ZTISt13runtime_error
_ZTISt14basic_ifstreamIcSt11char_traitsIcEE
_ZTISt14basic_ofstreamIcSt11char_traitsIcEE
_ZTISt15basic_streambufIcSt11char_traitsIcEE
_ZTISt9exception
_ZTS14RCSSCLangLexer
_ZTS18RCSSCLangFLexLexer
_ZTS9FlexLexer
_ZTSN4rcss2gz10gzifstreamE
_ZTSN4rcss2gz10gzofstreamE
_ZTSN4rcss2gz11gzstreambufE
_ZTSN4rcss2gz8gzstreamE
_ZTSN4rcss2gz9gzfilebufE
_ZTSN4rcss2gz9gzistreamE
_ZTSN4rcss2gz9gzostreamE
_ZTSN4rcss3net15SocketStreamBufE
_ZTSN4rcss3net6SocketE
_ZTSN4rcss3net9TCPSocketE
_ZTSN4rcss3net9UDPSocketE
_ZTSN4rcss4conf13StatusHandlerE
_ZTSN4rcss4conf19StreamStatusHandlerE
_ZTSN4rcss4conf6ParserE
_ZTSN4rcss4conf7BuilderE
_ZTSN4rcss4util7NullErrE
_ZTSN4rcss5clang10ActDribbleE
_ZTSN4rcss5clang10ActHetTypeE
_ZTSN4rcss5clang10ActPassRegE
_ZTSN4rcss5clang10BuilderErrE
_ZTSN4rcss5clang10IDListRuleE
_ZTSN4rcss5clang10MsgBuilderE
_ZTSN4rcss5clang10NestedRuleE
_ZTSN4rcss5clang10PointArithE
_ZTSN4rcss5clang10SimpleRuleE
_ZTSN4rcss5clang11ActPassUNumE
_ZTSN4rcss5clang11CondBallPosE
_ZTSN4rcss5clang11CondOppGoalE
_ZTSN4rcss5clang11CondOurGoalE
_ZTSN4rcss5clang11FreeformMsgE
_ZTSN4rcss5clang11PointPlayerE
_ZTSN4rcss5clang11PointSimpleE
_ZTSN4rcss5clang12ActBallToRegE
_ZTSN4rcss5clang12ActInterceptE
_ZTSN4rcss5clang12CondGoalDiffE
_ZTSN4rcss5clang12CondPlayModeE
_ZTSN4rcss5clang12MetaTokenVerE
_ZTSN4rcss5clang13CondBallOwnerE
_ZTSN4rcss5clang13CondPlayerPosE
_ZTSN4rcss5clang14ActMarkLineRegE
_ZTSN4rcss5clang15ActBallToPlayerE
_ZTSN4rcss5clang15ActOffsidesLineE
_ZTSN4rcss5clang17ActMarkLinePlayerE
_ZTSN4rcss5clang3DefE
_ZTSN4rcss5clang3DirE
_ZTSN4rcss5clang3MsgE
_ZTSN4rcss5clang4CondE
_ZTSN4rcss5clang4RuleE
_ZTSN4rcss5clang5PointE
_ZTSN4rcss5clang5TokenE
_ZTSN4rcss5clang6ActPosE
_ZTSN4rcss5clang6ActionE
_ZTSN4rcss5clang6CondOrE
_ZTSN4rcss5clang6DefActE
_ZTSN4rcss5clang6DefDirE
_ZTSN4rcss5clang6DefRegE
_ZTSN4rcss5clang6DelMsgE
_ZTSN4rcss5clang6ParserE
_ZTSN4rcss5clang6RegArcE
_ZTSN4rcss5clang6RegRecE
_ZTSN4rcss5clang6RegTriE
_ZTSN4rcss5clang6RegionE
_ZTSN4rcss5clang7ActHoldE
_ZTSN4rcss5clang7ActHomeE
_ZTSN4rcss5clang7ActMarkE
_ZTSN4rcss5clang7BuilderE
_ZTSN4rcss5clang7CondAndE
_ZTSN4rcss5clang7CondNotE
_ZTSN4rcss5clang7DefCondE
_ZTSN4rcss5clang7DefRuleE
_ZTSN4rcss5clang7DirCommE
_ZTSN4rcss5clang7InfoMsgE
_ZTSN4rcss5clang7MetaMsgE
_ZTSN4rcss5clang7RegNullE
_ZTSN4rcss5clang7RegQuadE
_ZTSN4rcss5clang7RuleMsgE
_ZTSN4rcss5clang7TokRuleE
_ZTSN4rcss5clang8ActClearE
_ZTSN4rcss5clang8ActNamedE
_ZTSN4rcss5clang8ActShootE
_ZTSN4rcss5clang8CondBoolE
_ZTSN4rcss5clang8CondCompIiEE
_ZTSN4rcss5clang8CondRuleE
_ZTSN4rcss5clang8CondTimeE
_ZTSN4rcss5clang8CondUNumE
_ZTSN4rcss5clang8DirNamedE
_ZTSN4rcss5clang8PointRelE
_ZTSN4rcss5clang8RegNamedE
_ZTSN4rcss5clang8RegPointE
_ZTSN4rcss5clang8RegUnionE
_ZTSN4rcss5clang8TokClearE
_ZTSN4rcss5clang9ActTackleE
_ZTSN4rcss5clang9AdviceMsgE
_ZTSN4rcss5clang9CondNamedE
_ZTSN4rcss5clang9DefineMsgE
_ZTSN4rcss5clang9MetaTokenE
_ZTSN4rcss5clang9PointBallE
_ZTSN4rcss5clang9UnsuppMsgE
_ZTSN4rcss6ParserE
_ZTSN5boost10filesystem14basic_ifstreamIcSt11char_traitsIcEEE
_ZTSN5boost10filesystem14basic_ofstreamIcSt11char_traitsIcEEE
_ZTSN5boost16exception_detail10clone_baseE
_ZTSN5boost16exception_detail10clone_implINS0_19error_info_injectorINS_6spirit7classic12parser_errorIN4rcss4conf6Parser6ErrorsEPKcEEEEEE
_ZTSN5boost16exception_detail19error_info_injectorINS_6spirit7classic12parser_errorIN4rcss4conf6Parser6ErrorsEPKcEEEE
_ZTSN5boost6detail15sp_counted_baseE
_ZTSN5boost6detail17sp_counted_impl_pIN4rcss2gz16gzstreambuf_implEEE
_ZTSN5boost6detail17sp_counted_impl_pIN4rcss3net8AddrImplEEE
_ZTSN5boost6detail17sp_counted_impl_pINS_6spirit7classic11basic_chsetIcEEEE
_ZTSN5boost6detail18sp_counted_impl_pdIPiPFvS2_EEE
_ZTSN5boost6spirit7classic12parser_errorIN4rcss4conf6Parser6ErrorsEPKcEE
_ZTSN5boost6spirit7classic17parser_error_baseE
_ZTSN5boost6spirit7classic4impl15abstract_parserINS1_7scannerIPKcNS1_16scanner_policiesINS1_16iteration_policyENS1_12match_policyENS1_13action_policyEEEEENS1_5nil_tEEE
_ZTSN5boost6spirit7classic4impl15concrete_parserINS1_10eol_parserENS1_7scannerIPKcNS1_16scanner_policiesINS1_16iteration_policyENS1_12match_policyENS1_13action_policyEEEEENS1_5nil_tEEE
_ZTSN5boost6spirit7classic4impl15concrete_parserINS1_11alternativeINS1_12inhibit_caseINS1_6strlitIPKcEEEESA_EENS1_7scannerIS8_NS1_16scanner_policiesINS1_16iteration_policyENS1_12match_policyENS1_13action_policyEEEEENS1_5nil_tEEE
_ZTSN5boost6spirit7classic4impl15concrete_parserINS1_11alternativeINS1_4ruleINS1_5nil_tES6_S6_EENS1_8sequenceINS8_INS1_8optionalIS7_EESA_EES7_EEEENS1_7scannerIPKcNS1_16scanner_policiesINS1_16iteration_policyENS1_12match_policyENS1_13action_policyEEEEES6_EE
_ZTSN5boost6spirit7classic4impl15concrete_parserINS1_11alternativeINS1_6strlitIPKcEENS1_4ruleINS1_5nil_tESA_SA_EEEENS1_7scannerIS7_NS1_16scanner_policiesINS1_16iteration_policyENS1_12match_policyENS1_13action_policyEEEEESA_EE
_ZTSN5boost6spirit7classic4impl15concrete_parserINS1_11alternativeINS4_INS1_13confix_parserINS1_6strlitIPKcEENS1_11kleene_starINS1_14anychar_parserEEES9_NS1_21unary_parser_categoryENS1_10non_nestedENS1_9is_lexemeEEENS5_IS9_SC_NS4_INS1_10eol_parserENS1_10end_parserEEESD_SE_SF_EEEESK_EENS1_7scannerIS8_NS1_16scanner_policiesINS1_16iteration_policyENS1_12match_policyENS1_13action_policyEEEEENS1_5nil_tEEE
_ZTSN5boost6spirit7classic4impl15concrete_parserINS1_11alternativeINS4_INS1_4ruleINS1_5nil_tES6_S6_EENS1_6actionIS7_NS_3_bi6bind_tIvNS_4_mfi3mf2IvN4rcss4conf6ParserEPKcSH_EENS9_5list3INS9_5valueIPSF_EENS_3argILi1EEENSN_ILi2EEEEEEEEEEESS_EENS1_7scannerISH_NS1_16scanner_policiesINS1_16iteration_policyENS1_12match_policyENS1_13action_policyEEEEES6_EE
_ZTSN5boost6spirit7classic4impl15concrete_parserINS1_11alternativeINS4_INS1_4ruleINS1_5nil_tES6_S6_EES7_EES7_EENS1_7scannerIPKcNS1_16scanner_policiesINS1_16iteration_policyENS1_12match_policyENS1_13action_policyEEEEES6_EE
_ZTSN5boost6spirit7classic4impl15concrete_parserINS1_11alternativeINS4_INS4_INS1_6actionINS1_12inhibit_caseINS1_6strlitIPKcEEEENS_3_bi6bind_tIvNS_4_mfi3mf0IvN4rcss4conf6ParserEEENSC_5list1INSC_5valueIPSI_EEEEEEEENS5_INS1_8sequenceINSR_INS1_4ruleINS1_5nil_tEST_ST_EESU_EESB_EESP_EEEESU_EESU_EENS1_7scannerIS9_NS1_16scanner_policiesINS1_16iteration_policyENS1_12match_policyENS1_13action_policyEEEEEST_EE
_ZTSN5boost6spirit7classic4impl15concrete_parserINS1_11kleene_starINS1_4ruleINS1_5nil_tES6_S6_EEEENS1_7scannerIPKcNS1_16scanner_policiesINS1_16iteration_policyENS1_12match_policyENS1_13action_policyEEEEES6_EE
_ZTSN5boost6spirit7classic4impl15concrete_parserINS1_15fallback_parserIN4rcss4conf6Parser6ErrorsENS1_11kleene_starINS1_4ruleINS1_5nil_tESB_SB_EEEENS_3_bi6bind_tINS1_12error_statusISB_EEPFSH_PKS7_RKNS1_7scannerIPKcNS1_16scanner_policiesINS1_16iteration_policyENS1_12match_policyENS1_13action_policyEEEEERKNS1_12parser_errorIS8_SM_EEENSE_5list3INSE_5valueIPS7_EENS_3argILi1EEENS15_ILi2EEEEEEEEESS_SB_EE
_ZTSN5boost6spirit7classic4impl15concrete_parserINS1_19negated_char_parserINS1_5chlitIcEEEENS1_7scannerIPKcNS1_16scanner_policiesINS1_16iteration_policyENS1_12match_policyENS1_13action_policyEEEEENS1_5nil_tEEE
_ZTSN5boost6spirit7classic4impl15concrete_parserINS1_5chlitIcEENS1_7scannerIPKcNS1_16scanner_policiesINS1_16iteration_policyENS1_12match_policyENS1_13action_policyEEEEENS1_5nil_tEEE
_ZTSN5boost6spirit7classic4impl15concrete_parserINS1_6strlitIPKcEENS1_7scannerIS6_NS1_16scanner_policiesINS1_16iteration_policyENS1_12match_policyENS1_13action_policyEEEEENS1_5nil_tEEE
_ZTSN5boost6spirit7classic4impl15concrete_parserINS1_8positiveINS1_5chsetIcEEEENS1_7scannerIPKcNS1_16scanner_policiesINS1_16iteration_policyENS1_12match_policyENS1_13action_policyEEEEENS1_5nil_tEEE
_ZTSN5boost6spirit7classic4impl15concrete_parserINS1_8sequenceINS1_6actionINS1_10differenceINS1_4ruleINS1_5nil_tES8_S8_EES9_EENS_3_bi6bind_tIbNS_4_mfi3mf2IbN4rcss4conf6ParserEPKcSJ_EENSB_5list3INSB_5valueIPSH_EENS_3argILi1EEENSP_ILi2EEEEEEEEENS1_11kleene_starINS4_IS9_NS5_INS6_IS9_NS1_12inhibit_caseINS1_6strlitISJ_EEEEEENSC_IvNSE_IvSH_SJ_SJ_EESS_EEEEEEEEEENS1_7scannerISJ_NS1_16scanner_policiesINS1_16iteration_policyENS1_12match_policyENS1_13action_policyEEEEES8_EE
_ZTSN5boost6spirit7classic4impl15concrete_parserINS1_8sequenceINS1_8positiveINS1_5chsetIcEEEENS1_11kleene_starIS7_EEEENS1_7scannerIPKcNS1_16scanner_policiesINS1_16iteration_policyENS1_12match_policyENS1_13action_policyEEEEENS1_5nil_tEEE
_ZTSN5boost6spirit7classic4impl15concrete_parserINS1_8sequenceINS4_INS1_5chlitIcEENS1_11kleene_starINS1_4ruleINS1_5nil_tES9_S9_EEEEEES6_EENS1_7scannerIPKcNS1_16scanner_policiesINS1_16iteration_policyENS1_12match_policyENS1_13action_policyEEEEES9_EE
_ZTSN5boost6spirit7classic4impl15concrete_parserINS1_8sequenceINS4_INS1_6actionINS1_10differenceINS1_4ruleINS1_5nil_tES8_S8_EES9_EENS_3_bi6bind_tIbNS_4_mfi3mf2IbN4rcss4conf6ParserEPKcSJ_EENSB_5list3INSB_5valueIPSH_EENS_3argILi1EEENSP_ILi2EEEEEEEEENS4_INS1_16assertive_parserINSH_6ErrorsES9_EENS5_INS6_IS9_NS1_12inhibit_caseINS1_6strlitISJ_EEEEEENSC_IvNSE_IvSH_SJ_SJ_EESS_EEEEEEEENS1_11kleene_starINS4_IS9_S15_EEEEEENS1_7scannerISJ_NS1_16scanner_policiesINS1_16iteration_policyENS1_12match_policyENS1_13action_policyEEEEES8_EE
_ZTSN5boost6spirit7classic4impl15concrete_parserINS1_8sequenceINS4_INS4_INS4_INS1_12inhibit_caseINS1_6strlitIPKcEEEENS1_4ruleINS1_5nil_tESC_SC_EEEENS1_16assertive_parserIN4rcss4conf6Parser6ErrorsESD_EEEESD_EENSF_ISJ_NS1_6actionISD_NS_3_bi6bind_tIbNS_4_mfi3mf2IbSI_S8_S8_EENSO_5list3INSO_5valueIPSI_EENS_3argILi1EEENSX_ILi2EEEEEEEEEEEEENS1_7scannerIS8_NS1_16scanner_policiesINS1_16iteration_policyENS1_12match_policyENS1_13action_policyEEEEESC_EE
_ZTSN5boost6spirit7classic4impl15concrete_parserINS1_8sequenceINS4_INS4_INS4_INS1_4ruleINS1_5nil_tES6_S6_EES7_EENS1_16assertive_parserIN4rcss4conf6Parser6ErrorsES7_EEEES7_EENS9_ISD_NS1_11alternativeINSH_INSH_INSH_INS1_6actionIS7_NS_3_bi6bind_tIbNS_4_mfi3mf1IbSC_bEENSJ_5list2INSJ_5valueIPSC_EENSP_IbEEEEEEEESV_EENSI_INS1_11real_parserIdNS1_27strict_real_parser_policiesIdEEEENSK_IbNSM_IbSC_dEENSO_ISR_NS_3argILi1EEEEEEEEEEENSI_INS1_10int_parserIiLi10ELj1ELin1EEENSK_IbNSM_IbSC_iEES14_EEEEEENSI_IS7_NSK_IbNSL_3mf2IbSC_PKcS1G_EENSJ_5list3ISR_S13_NS12_ILi2EEEEEEEEEEEEEEENS1_7scannerIS1G_NS1_16scanner_policiesINS1_16iteration_policyENS1_12match_policyENS1_13action_policyEEEEES6_EE
_ZTSN5boost6system12system_errorE
_ZTSN5boost9exceptionE
_ZTSPFvPiE
_ZTTN4rcss2gz10gzifstreamE
_ZTTN4rcss2gz10gzofstreamE
_ZTTN4rcss2gz8gzstreamE
_ZTTN4rcss2gz9gzistreamE
_ZTTN4rcss2gz9gzostreamE
_ZTTN5boost10filesystem14basic_ifstreamIcSt11char_traitsIcEEE
_ZTTN5boost10filesystem14basic_ofstreamIcSt11char_traitsIcEEE
_ZTTN5boost16exception_detail10clone_implINS0_19error_info_injectorINS_6spirit7classic12parser_errorIN4rcss4conf6Parser6ErrorsEPKcEEEEEE
_ZTV14RCSSCLangLexer
_ZTV18RCSSCLangFLexLexer
_ZTVN10__cxxabiv117__class_type_infoE
_ZTVN10__cxxabiv120__si_class_type_infoE
_ZTVN10__cxxabiv121__vmi_class_type_infoE
_ZTVN4rcss2gz10gzifstreamE
_ZTVN4rcss2gz10gzofstreamE
_ZTVN4rcss2gz11gzstreambufE
_ZTVN4rcss2gz8gzstreamE
_ZTVN4rcss2gz9gzfilebufE
_ZTVN4rcss2gz9gzistreamE
_ZTVN4rcss2gz9gzostreamE
_ZTVN4rcss3net15SocketStreamBufE
_ZTVN4rcss3net6SocketE
_ZTVN4rcss3net9TCPSocketE
_ZTVN4rcss3net9UDPSocketE
_ZTVN4rcss4conf13StatusHandlerE
_ZTVN4rcss4conf19StreamStatusHandlerE
_ZTVN4rcss4conf6ParserE
_ZTVN4rcss4conf7BuilderE
_ZTVN4rcss4util7NullErrE
_ZTVN4rcss5clang10ActDribbleE
_ZTVN4rcss5clang10ActHetTypeE
_ZTVN4rcss5clang10ActPassRegE
_ZTVN4rcss5clang10BuilderErrE
_ZTVN4rcss5clang10IDListRuleE
_ZTVN4rcss5clang10MsgBuilderE
_ZTVN4rcss5clang10NestedRuleE
_ZTVN4rcss5clang10PointArithE
_ZTVN4rcss5clang10SimpleRuleE
_ZTVN4rcss5clang11ActPassUNumE
_ZTVN4rcss5clang11CondBallPosE
_ZTVN4rcss5clang11CondOppGoalE
_ZTVN4rcss5clang11CondOurGoalE
_ZTVN4rcss5clang11FreeformMsgE
_ZTVN4rcss5clang11PointPlayerE
_ZTVN4rcss5clang11PointSimpleE
_ZTVN4rcss5clang12ActBallToRegE
_ZTVN4rcss5clang12ActInterceptE
_ZTVN4rcss5clang12CondGoalDiffE
_ZTVN4rcss5clang12CondPlayModeE
_ZTVN4rcss5clang12MetaTokenVerE
_ZTVN4rcss5clang13CondBallOwnerE
_ZTVN4rcss5clang13CondPlayerPosE
_ZTVN4rcss5clang14ActMarkLineRegE
_ZTVN4rcss5clang15ActBallToPlayerE
_ZTVN4rcss5clang15ActOffsidesLineE
_ZTVN4rcss5clang17ActMarkLinePlayerE
_ZTVN4rcss5clang3DefE
_ZTVN4rcss5clang3MsgE
_ZTVN4rcss5clang4RuleE
_ZTVN4rcss5clang6ActPosE
_ZTVN4rcss5clang6ActionE
_ZTVN4rcss5clang6CondOrE
_ZTVN4rcss5clang6DefActE
_ZTVN4rcss5clang6DefDirE
_ZTVN4rcss5clang6DefRegE
_ZTVN4rcss5clang6DelMsgE
_ZTVN4rcss5clang6ParserE
_ZTVN4rcss5clang6RegArcE
_ZTVN4rcss5clang6RegRecE
_ZTVN4rcss5clang6RegTriE
_ZTVN4rcss5clang7ActHoldE
_ZTVN4rcss5clang7ActHomeE
_ZTVN4rcss5clang7ActMarkE
_ZTVN4rcss5clang7CondAndE
_ZTVN4rcss5clang7CondNotE
_ZTVN4rcss5clang7DefCondE
_ZTVN4rcss5clang7DefRuleE
_ZTVN4rcss5clang7DirCommE
_ZTVN4rcss5clang7InfoMsgE
_ZTVN4rcss5clang7MetaMsgE
_ZTVN4rcss5clang7RegNullE
_ZTVN4rcss5clang7RegQuadE
_ZTVN4rcss5clang7RuleMsgE
_ZTVN4rcss5clang7TokRuleE
_ZTVN4rcss5clang8ActClearE
_ZTVN4rcss5clang8ActNamedE
_ZTVN4rcss5clang8ActShootE
_ZTVN4rcss5clang8CondBoolE
_ZTVN4rcss5clang8CondRuleE
_ZTVN4rcss5clang8CondTimeE
_ZTVN4rcss5clang8CondUNumE
_ZTVN4rcss5clang8DirNamedE
_ZTVN4rcss5clang8PointRelE
_ZTVN4rcss5clang8RegNamedE
_ZTVN4rcss5clang8RegPointE
_ZTVN4rcss5clang8RegUnionE
_ZTVN4rcss5clang8TokClearE
_ZTVN4rcss5clang9ActTackleE
_ZTVN4rcss5clang9AdviceMsgE
_ZTVN4rcss5clang9CondNamedE
_ZTVN4rcss5clang9DefineMsgE
_ZTVN4rcss5clang9MetaTokenE
_ZTVN4rcss5clang9PointBallE
_ZTVN4rcss5clang9UnsuppMsgE
_ZTVN4rcss6ParserE
_ZTVN5boost10filesystem14basic_ifstreamIcSt11char_traitsIcEEE
_ZTVN5boost10filesystem14basic_ofstreamIcSt11char_traitsIcEEE
_ZTVN5boost16exception_detail10clone_baseE
_ZTVN5boost16exception_detail10clone_implINS0_19error_info_injectorINS_6spirit7classic12parser_errorIN4rcss4conf6Parser6ErrorsEPKcEEEEEE
_ZTVN5boost16exception_detail19error_info_injectorINS_6spirit7classic12parser_errorIN4rcss4conf6Parser6ErrorsEPKcEEEE
_ZTVN5boost6detail17sp_counted_impl_pIN4rcss2gz16gzstreambuf_implEEE
_ZTVN5boost6detail17sp_counted_impl_pIN4rcss3net8AddrImplEEE
_ZTVN5boost6detail17sp_counted_impl_pINS_6spirit7classic11basic_chsetIcEEEE
_ZTVN5boost6detail18sp_counted_impl_pdIPiPFvS2_EEE
_ZTVN5boost6spirit7classic12parser_errorIN4rcss4conf6Parser6ErrorsEPKcEE
_ZTVN5boost6spirit7classic17parser_error_baseE
_ZTVN5boost6spirit7classic4impl15concrete_parserINS1_10eol_parserENS1_7scannerIPKcNS1_16scanner_policiesINS1_16iteration_policyENS1_12match_policyENS1_13action_policyEEEEENS1_5nil_tEEE
_ZTVN5boost6spirit7classic4impl15concrete_parserINS1_11alternativeINS1_12inhibit_caseINS1_6strlitIPKcEEEESA_EENS1_7scannerIS8_NS1_16scanner_policiesINS1_16iteration_policyENS1_12match_policyENS1_13action_policyEEEEENS1_5nil_tEEE
_ZTVN5boost6spirit7classic4impl15concrete_parserINS1_11alternativeINS1_4ruleINS1_5nil_tES6_S6_EENS1_8sequenceINS8_INS1_8optionalIS7_EESA_EES7_EEEENS1_7scannerIPKcNS1_16scanner_policiesINS1_16iteration_policyENS1_12match_policyENS1_13action_policyEEEEES6_EE
_ZTVN5boost6spirit7classic4impl15concrete_parserINS1_11alternativeINS1_6strlitIPKcEENS1_4ruleINS1_5nil_tESA_SA_EEEENS1_7scannerIS7_NS1_16scanner_policiesINS1_16iteration_policyENS1_12match_policyENS1_13action_policyEEEEESA_EE
_ZTVN5boost6spirit7classic4impl15concrete_parserINS1_11alternativeINS4_INS1_13confix_parserINS1_6strlitIPKcEENS1_11kleene_starINS1_14anychar_parserEEES9_NS1_21unary_parser_categoryENS1_10non_nestedENS1_9is_lexemeEEENS5_IS9_SC_NS4_INS1_10eol_parserENS1_10end_parserEEESD_SE_SF_EEEESK_EENS1_7scannerIS8_NS1_16scanner_policiesINS1_16iteration_policyENS1_12match_policyENS1_13action_policyEEEEENS1_5nil_tEEE
_ZTVN5boost6spirit7classic4impl15concrete_parserINS1_11alternativeINS4_INS1_4ruleINS1_5nil_tES6_S6_EENS1_6actionIS7_NS_3_bi6bind_tIvNS_4_mfi3mf2IvN4rcss4conf6ParserEPKcSH_EENS9_5list3INS9_5valueIPSF_EENS_3argILi1EEENSN_ILi2EEEEEEEEEEESS_EENS1_7scannerISH_NS1_16scanner_policiesINS1_16iteration_policyENS1_12match_policyENS1_13action_policyEEEEES6_EE
_ZTVN5boost6spirit7classic4impl15concrete_parserINS1_11alternativeINS4_INS1_4ruleINS1_5nil_tES6_S6_EES7_EES7_EENS1_7scannerIPKcNS1_16scanner_policiesINS1_16iteration_policyENS1_12match_policyENS1_13action_policyEEEEES6_EE
_ZTVN5boost6spirit7classic4impl15concrete_parserINS1_11alternativeINS4_INS4_INS1_6actionINS1_12inhibit_caseINS1_6strlitIPKcEEEENS_3_bi6bind_tIvNS_4_mfi3mf0IvN4rcss4conf6ParserEEENSC_5list1INSC_5valueIPSI_EEEEEEEENS5_INS1_8sequenceINSR_INS1_4ruleINS1_5nil_tEST_ST_EESU_EESB_EESP_EEEESU_EESU_EENS1_7scannerIS9_NS1_16scanner_policiesINS1_16iteration_policyENS1_12match_policyENS1_13action_policyEEEEEST_EE
_ZTVN5boost6spirit7classic4impl15concrete_parserINS1_11kleene_starINS1_4ruleINS1_5nil_tES6_S6_EEEENS1_7scannerIPKcNS1_16scanner_policiesINS1_16iteration_policyENS1_12match_policyENS1_13action_policyEEEEES6_EE
_ZTVN5boost6spirit7classic4impl15concrete_parserINS1_15fallback_parserIN4rcss4conf6Parser6ErrorsENS1_11kleene_starINS1_4ruleINS1_5nil_tESB_SB_EEEENS_3_bi6bind_tINS1_12error_statusISB_EEPFSH_PKS7_RKNS1_7scannerIPKcNS1_16scanner_policiesINS1_16iteration_policyENS1_12match_policyENS1_13action_policyEEEEERKNS1_12parser_errorIS8_SM_EEENSE_5list3INSE_5valueIPS7_EENS_3argILi1EEENS15_ILi2EEEEEEEEESS_SB_EE
_ZTVN5boost6spirit7classic4impl15concrete_parserINS1_19negated_char_parserINS1_5chlitIcEEEENS1_7scannerIPKcNS1_16scanner_policiesINS1_16iteration_policyENS1_12match_policyENS1_13action_policyEEEEENS1_5nil_tEEE
_ZTVN5boost6spirit7classic4impl15concrete_parserINS1_5chlitIcEENS1_7scannerIPKcNS1_16scanner_policiesINS1_16iteration_policyENS1_12match_policyENS1_13action_policyEEEEENS1_5nil_tEEE
_ZTVN5boost6spirit7classic4impl15concrete_parserINS1_6strlitIPKcEENS1_7scannerIS6_NS1_16scanner_policiesINS1_16iteration_policyENS1_12match_policyENS1_13action_policyEEEEENS1_5nil_tEEE
_ZTVN5boost6spirit7classic4impl15concrete_parserINS1_8positiveINS1_5chsetIcEEEENS1_7scannerIPKcNS1_16scanner_policiesINS1_16iteration_policyENS1_12match_policyENS1_13action_policyEEEEENS1_5nil_tEEE
_ZTVN5boost6spirit7classic4impl15concrete_parserINS1_8sequenceINS1_6actionINS1_10differenceINS1_4ruleINS1_5nil_tES8_S8_EES9_EENS_3_bi6bind_tIbNS_4_mfi3mf2IbN4rcss4conf6ParserEPKcSJ_EENSB_5list3INSB_5valueIPSH_EENS_3argILi1EEENSP_ILi2EEEEEEEEENS1_11kleene_starINS4_IS9_NS5_INS6_IS9_NS1_12inhibit_caseINS1_6strlitISJ_EEEEEENSC_IvNSE_IvSH_SJ_SJ_EESS_EEEEEEEEEENS1_7scannerISJ_NS1_16scanner_policiesINS1_16iteration_policyENS1_12match_policyENS1_13action_policyEEEEES8_EE
_ZTVN5boost6spirit7classic4impl15concrete_parserINS1_8sequenceINS1_8positiveINS1_5chsetIcEEEENS1_11kleene_starIS7_EEEENS1_7scannerIPKcNS1_16scanner_policiesINS1_16iteration_policyENS1_12match_policyENS1_13action_policyEEEEENS1_5nil_tEEE
_ZTVN5boost6spirit7classic4impl15concrete_parserINS1_8sequenceINS4_INS1_5chlitIcEENS1_11kleene_starINS1_4ruleINS1_5nil_tES9_S9_EEEEEES6_EENS1_7scannerIPKcNS1_16scanner_policiesINS1_16iteration_policyENS1_12match_policyENS1_13action_policyEEEEES9_EE
_ZTVN5boost6spirit7classic4impl15concrete_parserINS1_8sequenceINS4_INS1_6actionINS1_10differenceINS1_4ruleINS1_5nil_tES8_S8_EES9_EENS_3_bi6bind_tIbNS_4_mfi3mf2IbN4rcss4conf6ParserEPKcSJ_EENSB_5list3INSB_5valueIPSH_EENS_3argILi1EEENSP_ILi2EEEEEEEEENS4_INS1_16assertive_parserINSH_6ErrorsES9_EENS5_INS6_IS9_NS1_12inhibit_caseINS1_6strlitISJ_EEEEEENSC_IvNSE_IvSH_SJ_SJ_EESS_EEEEEEEENS1_11kleene_starINS4_IS9_S15_EEEEEENS1_7scannerISJ_NS1_16scanner_policiesINS1_16iteration_policyENS1_12match_policyENS1_13action_policyEEEEES8_EE
_ZTVN5boost6spirit7classic4impl15concrete_parserINS1_8sequenceINS4_INS4_INS4_INS1_12inhibit_caseINS1_6strlitIPKcEEEENS1_4ruleINS1_5nil_tESC_SC_EEEENS1_16assertive_parserIN4rcss4conf6Parser6ErrorsESD_EEEESD_EENSF_ISJ_NS1_6actionISD_NS_3_bi6bind_tIbNS_4_mfi3mf2IbSI_S8_S8_EENSO_5list3INSO_5valueIPSI_EENS_3argILi1EEENSX_ILi2EEEEEEEEEEEEENS1_7scannerIS8_NS1_16scanner_policiesINS1_16iteration_policyENS1_12match_policyENS1_13action_policyEEEEESC_EE
_ZTVN5boost6spirit7classic4impl15concrete_parserINS1_8sequenceINS4_INS4_INS4_INS1_4ruleINS1_5nil_tES6_S6_EES7_EENS1_16assertive_parserIN4rcss4conf6Parser6ErrorsES7_EEEES7_EENS9_ISD_NS1_11alternativeINSH_INSH_INSH_INS1_6actionIS7_NS_3_bi6bind_tIbNS_4_mfi3mf1IbSC_bEENSJ_5list2INSJ_5valueIPSC_EENSP_IbEEEEEEEESV_EENSI_INS1_11real_parserIdNS1_27strict_real_parser_policiesIdEEEENSK_IbNSM_IbSC_dEENSO_ISR_NS_3argILi1EEEEEEEEEEENSI_INS1_10int_parserIiLi10ELj1ELin1EEENSK_IbNSM_IbSC_iEES14_EEEEEENSI_IS7_NSK_IbNSL_3mf2IbSC_PKcS1G_EENSJ_5list3ISR_S13_NS12_ILi2EEEEEEEEEEEEEEENS1_7scannerIS1G_NS1_16scanner_policiesINS1_16iteration_policyENS1_12match_policyENS1_13action_policyEEEEES6_EE
_ZTVN5boost6system12system_errorE
_ZTVN5boost9exceptionE
_ZThn16_N4rcss2gz8gzstreamD0Ev
_ZThn16_N4rcss2gz8gzstreamD1Ev
_ZThn24_N5boost16exception_detail10clone_implINS0_19error_info_injectorINS_6spirit7classic12parser_errorIN4rcss4conf6Parser6ErrorsEPKcEEEEED0Ev
_ZThn24_N5boost16exception_detail10clone_implINS0_19error_info_injectorINS_6spirit7classic12parser_errorIN4rcss4conf6Parser6ErrorsEPKcEEEEED1Ev
_ZThn24_N5boost16exception_detail19error_info_injectorINS_6spirit7classic12parser_errorIN4rcss4conf6Parser6ErrorsEPKcEEED0Ev
_ZThn24_N5boost16exception_detail19error_info_injectorINS_6spirit7classic12parser_errorIN4rcss4conf6Parser6ErrorsEPKcEEED1Ev
_ZTv0_n24_N4rcss2gz10gzifstreamD0Ev
_ZTv0_n24_N4rcss2gz10gzifstreamD1Ev
_ZTv0_n24_N4rcss2gz10gzofstreamD0Ev
_ZTv0_n24_N4rcss2gz10gzofstreamD1Ev
_ZTv0_n24_N4rcss2gz8gzstreamD0Ev
_ZTv0_n24_N4rcss2gz8gzstreamD1Ev
_ZTv0_n24_N4rcss2gz9gzistreamD0Ev
_ZTv0_n24_N4rcss2gz9gzistreamD1Ev
_ZTv0_n24_N4rcss2gz9gzostreamD0Ev
_ZTv0_n24_N4rcss2gz9gzostreamD1Ev
_ZTv0_n24_N5boost10filesystem14basic_ifstreamIcSt11char_traitsIcEED0Ev
_ZTv0_n24_N5boost10filesystem14basic_ifstreamIcSt11char_traitsIcEED1Ev
_ZTv0_n24_N5boost10filesystem14basic_ofstreamIcSt11char_traitsIcEED0Ev
_ZTv0_n24_N5boost10filesystem14basic_ofstreamIcSt11char_traitsIcEED1Ev
_ZTv0_n24_NK5boost16exception_detail10clone_implINS0_19error_info_injectorINS_6spirit7classic12parser_errorIN4rcss4conf6Parser6ErrorsEPKcEEEEE5cloneEv
_ZTv0_n32_NK5boost16exception_detail10clone_implINS0_19error_info_injectorINS_6spirit7classic12parser_errorIN4rcss4conf6Parser6ErrorsEPKcEEEEE7rethrowEv
_ZTv0_n40_N5boost16exception_detail10clone_implINS0_19error_info_injectorINS_6spirit7classic12parser_errorIN4rcss4conf6Parser6ErrorsEPKcEEEEED0Ev
_ZTv0_n40_N5boost16exception_detail10clone_implINS0_19error_info_injectorINS_6spirit7classic12parser_errorIN4rcss4conf6Parser6ErrorsEPKcEEEEED1Ev
_ZZN12_GLOBAL__N_18getParamEPvE12cached_param
_ZZN4rcss4util6CompOp8instanceERKNS1_6comp_tEE9instances
_ZZN4rcss4util7ArithOp8instanceERKNS1_7arith_tEE9instances
_ZZN5boost6spirit7classic4impl16real_parser_implINS1_5matchIdEEdNS1_27strict_real_parser_policiesIdEEE5parseINS1_7scannerIPKcNS1_16scanner_policiesINS1_16iteration_policyENS1_12match_policyENS1_13action_policyEEEEEEES5_RKT_E5this_
_ZZN5boost6spirit7classic4impl19negative_accumulateIdLi10EE3addERddE13min_div_radix
_ZZN5boost6spirit7classic4impl19negative_accumulateIdLi10EE3addERddE3min
_ZZN5boost6spirit7classic4impl19negative_accumulateIiLi10EE3addERiiE13min_div_radix
_ZZN5boost6spirit7classic4impl19negative_accumulateIiLi10EE3addERiiE3min
_ZZN5boost6spirit7classic4impl19positive_accumulateIdLi10EE3addERddE13max_div_radix
_ZZN5boost6spirit7classic4impl19positive_accumulateIdLi10EE3addERddE3max
_ZZN5boost6spirit7classic4impl19positive_accumulateIiLi10EE3addERiiE13max_div_radix
_ZZN5boost6spirit7classic4impl19positive_accumulateIiLi10EE3addERiiE3max
_ZdaPv
_ZdlPv
_ZlsRSoRKN4rcss5clang3MsgE
_Znam
_Znwm
__cxa_allocate_exception
__cxa_atexit
__cxa_begin_catch
__cxa_call_unexpected
__cxa_end_catch
__cxa_free_exception
__cxa_guard_acquire
__cxa_guard_release
__cxa_pure_virtual
__cxa_rethrow
__cxa_throw
__dso_handle
__errno_location
__gxx_personality_v0
__snprintf_chk
__stack_chk_fail
accept
atof
atoi
bind
close
connect
deflate
deflateEnd
deflateInit_
deflateParams
deflateReset
exit
fcntl
free
gethostbyname
getpeername
getservbyname
getservbyport
getsockname
gzclose
gzopen
gzread
gzseek
gztell
gzwrite
inet_ntoa
inflate
inflateInit_
inflateReset
listen
malloc
memcmp
memmove
parse
poll
pow
realloc
recv
recvfrom
send
sendto
setsockopt
socket
stpcpy
strcmp
strerror
strncpy
tolower
